ARM GAS  /tmp/ccQRGNkD.s 			page 1


   1              		.cpu cortex-m7
   2              		.eabi_attribute 28, 1
   3              		.eabi_attribute 20, 1
   4              		.eabi_attribute 21, 1
   5              		.eabi_attribute 23, 3
   6              		.eabi_attribute 24, 1
   7              		.eabi_attribute 25, 1
   8              		.eabi_attribute 26, 1
   9              		.eabi_attribute 30, 1
  10              		.eabi_attribute 34, 1
  11              		.eabi_attribute 18, 4
  12              		.file	"stm32f7xx_hal_dac.c"
  13              		.text
  14              	.Ltext0:
  15              		.cfi_sections	.debug_frame
  16              		.section	.text.HAL_DAC_MspInit,"ax",%progbits
  17              		.align	1
  18              		.weak	HAL_DAC_MspInit
  19              		.arch armv7e-m
  20              		.syntax unified
  21              		.thumb
  22              		.thumb_func
  23              		.fpu fpv5-d16
  25              	HAL_DAC_MspInit:
  26              	.LVL0:
  27              	.LFB143:
  28              		.file 1 "../Drivers/STM32F7xx_HAL_Driver/Src/stm32f7xx_hal_dac.c"
   1:../Drivers/STM32F7xx_HAL_Driver/Src/stm32f7xx_hal_dac.c **** /**
   2:../Drivers/STM32F7xx_HAL_Driver/Src/stm32f7xx_hal_dac.c ****   ******************************************************************************
   3:../Drivers/STM32F7xx_HAL_Driver/Src/stm32f7xx_hal_dac.c ****   * @file    stm32f7xx_hal_dac.c
   4:../Drivers/STM32F7xx_HAL_Driver/Src/stm32f7xx_hal_dac.c ****   * @author  MCD Application Team
   5:../Drivers/STM32F7xx_HAL_Driver/Src/stm32f7xx_hal_dac.c ****   * @brief   DAC HAL module driver.
   6:../Drivers/STM32F7xx_HAL_Driver/Src/stm32f7xx_hal_dac.c ****   *         This file provides firmware functions to manage the following
   7:../Drivers/STM32F7xx_HAL_Driver/Src/stm32f7xx_hal_dac.c ****   *         functionalities of the Digital to Analog Converter (DAC) peripheral:
   8:../Drivers/STM32F7xx_HAL_Driver/Src/stm32f7xx_hal_dac.c ****   *           + Initialization and de-initialization functions
   9:../Drivers/STM32F7xx_HAL_Driver/Src/stm32f7xx_hal_dac.c ****   *           + IO operation functions
  10:../Drivers/STM32F7xx_HAL_Driver/Src/stm32f7xx_hal_dac.c ****   *           + Peripheral Control functions
  11:../Drivers/STM32F7xx_HAL_Driver/Src/stm32f7xx_hal_dac.c ****   *           + Peripheral State and Errors functions
  12:../Drivers/STM32F7xx_HAL_Driver/Src/stm32f7xx_hal_dac.c ****   *
  13:../Drivers/STM32F7xx_HAL_Driver/Src/stm32f7xx_hal_dac.c ****   *
  14:../Drivers/STM32F7xx_HAL_Driver/Src/stm32f7xx_hal_dac.c ****   ******************************************************************************
  15:../Drivers/STM32F7xx_HAL_Driver/Src/stm32f7xx_hal_dac.c ****   * @attention
  16:../Drivers/STM32F7xx_HAL_Driver/Src/stm32f7xx_hal_dac.c ****   *
  17:../Drivers/STM32F7xx_HAL_Driver/Src/stm32f7xx_hal_dac.c ****   * Copyright (c) 2017 STMicroelectronics.
  18:../Drivers/STM32F7xx_HAL_Driver/Src/stm32f7xx_hal_dac.c ****   * All rights reserved.
  19:../Drivers/STM32F7xx_HAL_Driver/Src/stm32f7xx_hal_dac.c ****   *
  20:../Drivers/STM32F7xx_HAL_Driver/Src/stm32f7xx_hal_dac.c ****   * This software is licensed under terms that can be found in the LICENSE file
  21:../Drivers/STM32F7xx_HAL_Driver/Src/stm32f7xx_hal_dac.c ****   * in the root directory of this software component.
  22:../Drivers/STM32F7xx_HAL_Driver/Src/stm32f7xx_hal_dac.c ****   * If no LICENSE file comes with this software, it is provided AS-IS.
  23:../Drivers/STM32F7xx_HAL_Driver/Src/stm32f7xx_hal_dac.c ****   *
  24:../Drivers/STM32F7xx_HAL_Driver/Src/stm32f7xx_hal_dac.c ****   ******************************************************************************
  25:../Drivers/STM32F7xx_HAL_Driver/Src/stm32f7xx_hal_dac.c ****   @verbatim
  26:../Drivers/STM32F7xx_HAL_Driver/Src/stm32f7xx_hal_dac.c ****   ==============================================================================
  27:../Drivers/STM32F7xx_HAL_Driver/Src/stm32f7xx_hal_dac.c ****                       ##### DAC Peripheral features #####
  28:../Drivers/STM32F7xx_HAL_Driver/Src/stm32f7xx_hal_dac.c ****   ==============================================================================
  29:../Drivers/STM32F7xx_HAL_Driver/Src/stm32f7xx_hal_dac.c ****     [..]
  30:../Drivers/STM32F7xx_HAL_Driver/Src/stm32f7xx_hal_dac.c ****       *** DAC Channels ***
ARM GAS  /tmp/ccQRGNkD.s 			page 2


  31:../Drivers/STM32F7xx_HAL_Driver/Src/stm32f7xx_hal_dac.c ****       ====================
  32:../Drivers/STM32F7xx_HAL_Driver/Src/stm32f7xx_hal_dac.c ****     [..]
  33:../Drivers/STM32F7xx_HAL_Driver/Src/stm32f7xx_hal_dac.c ****     STM32F7 devices integrates two 12-bit Digital Analog Converters that can
  34:../Drivers/STM32F7xx_HAL_Driver/Src/stm32f7xx_hal_dac.c ****     be used independently or simultaneously (dual mode):
  35:../Drivers/STM32F7xx_HAL_Driver/Src/stm32f7xx_hal_dac.c ****       (#) DAC channel1 with DAC_OUT1 (PA4) as output
  36:../Drivers/STM32F7xx_HAL_Driver/Src/stm32f7xx_hal_dac.c ****       (#) DAC channel2 with DAC_OUT2 (PA5) as output
  37:../Drivers/STM32F7xx_HAL_Driver/Src/stm32f7xx_hal_dac.c **** 
  38:../Drivers/STM32F7xx_HAL_Driver/Src/stm32f7xx_hal_dac.c ****       *** DAC Triggers ***
  39:../Drivers/STM32F7xx_HAL_Driver/Src/stm32f7xx_hal_dac.c ****       ====================
  40:../Drivers/STM32F7xx_HAL_Driver/Src/stm32f7xx_hal_dac.c ****     [..]
  41:../Drivers/STM32F7xx_HAL_Driver/Src/stm32f7xx_hal_dac.c ****     Digital to Analog conversion can be non-triggered using DAC_TRIGGER_NONE
  42:../Drivers/STM32F7xx_HAL_Driver/Src/stm32f7xx_hal_dac.c ****     and DAC_OUT1/DAC_OUT2 is available once writing to DHRx register.
  43:../Drivers/STM32F7xx_HAL_Driver/Src/stm32f7xx_hal_dac.c ****     [..]
  44:../Drivers/STM32F7xx_HAL_Driver/Src/stm32f7xx_hal_dac.c ****     Digital to Analog conversion can be triggered by:
  45:../Drivers/STM32F7xx_HAL_Driver/Src/stm32f7xx_hal_dac.c ****       (#) External event: EXTI Line 9 (any GPIOx_Pin9) using DAC_TRIGGER_EXT_IT9.
  46:../Drivers/STM32F7xx_HAL_Driver/Src/stm32f7xx_hal_dac.c ****           The used pin (GPIOx_Pin9) must be configured in input mode.
  47:../Drivers/STM32F7xx_HAL_Driver/Src/stm32f7xx_hal_dac.c **** 
  48:../Drivers/STM32F7xx_HAL_Driver/Src/stm32f7xx_hal_dac.c ****       (#) Timers TRGO: TIM2, TIM4, TIM5, TIM6, TIM7 and TIM8
  49:../Drivers/STM32F7xx_HAL_Driver/Src/stm32f7xx_hal_dac.c ****           (DAC_TRIGGER_T2_TRGO, DAC_TRIGGER_T4_TRGO...)
  50:../Drivers/STM32F7xx_HAL_Driver/Src/stm32f7xx_hal_dac.c **** 
  51:../Drivers/STM32F7xx_HAL_Driver/Src/stm32f7xx_hal_dac.c ****       (#) Software using DAC_TRIGGER_SOFTWARE
  52:../Drivers/STM32F7xx_HAL_Driver/Src/stm32f7xx_hal_dac.c **** 
  53:../Drivers/STM32F7xx_HAL_Driver/Src/stm32f7xx_hal_dac.c ****       *** DAC Buffer mode feature ***
  54:../Drivers/STM32F7xx_HAL_Driver/Src/stm32f7xx_hal_dac.c ****       ===============================
  55:../Drivers/STM32F7xx_HAL_Driver/Src/stm32f7xx_hal_dac.c ****       [..]
  56:../Drivers/STM32F7xx_HAL_Driver/Src/stm32f7xx_hal_dac.c ****       Each DAC channel integrates an output buffer that can be used to
  57:../Drivers/STM32F7xx_HAL_Driver/Src/stm32f7xx_hal_dac.c ****       reduce the output impedance, and to drive external loads directly
  58:../Drivers/STM32F7xx_HAL_Driver/Src/stm32f7xx_hal_dac.c ****       without having to add an external operational amplifier.
  59:../Drivers/STM32F7xx_HAL_Driver/Src/stm32f7xx_hal_dac.c ****       To enable, the output buffer use
  60:../Drivers/STM32F7xx_HAL_Driver/Src/stm32f7xx_hal_dac.c ****       sConfig.DAC_OutputBuffer = DAC_OUTPUTBUFFER_ENABLE;
  61:../Drivers/STM32F7xx_HAL_Driver/Src/stm32f7xx_hal_dac.c ****       [..]
  62:../Drivers/STM32F7xx_HAL_Driver/Src/stm32f7xx_hal_dac.c ****       (@) Refer to the device datasheet for more details about output
  63:../Drivers/STM32F7xx_HAL_Driver/Src/stm32f7xx_hal_dac.c ****           impedance value with and without output buffer.
  64:../Drivers/STM32F7xx_HAL_Driver/Src/stm32f7xx_hal_dac.c **** 
  65:../Drivers/STM32F7xx_HAL_Driver/Src/stm32f7xx_hal_dac.c ****        *** DAC wave generation feature ***
  66:../Drivers/STM32F7xx_HAL_Driver/Src/stm32f7xx_hal_dac.c ****        ===================================
  67:../Drivers/STM32F7xx_HAL_Driver/Src/stm32f7xx_hal_dac.c ****        [..]
  68:../Drivers/STM32F7xx_HAL_Driver/Src/stm32f7xx_hal_dac.c ****        Both DAC channels can be used to generate
  69:../Drivers/STM32F7xx_HAL_Driver/Src/stm32f7xx_hal_dac.c ****          (#) Noise wave
  70:../Drivers/STM32F7xx_HAL_Driver/Src/stm32f7xx_hal_dac.c ****          (#) Triangle wave
  71:../Drivers/STM32F7xx_HAL_Driver/Src/stm32f7xx_hal_dac.c **** 
  72:../Drivers/STM32F7xx_HAL_Driver/Src/stm32f7xx_hal_dac.c ****        *** DAC data format ***
  73:../Drivers/STM32F7xx_HAL_Driver/Src/stm32f7xx_hal_dac.c ****        =======================
  74:../Drivers/STM32F7xx_HAL_Driver/Src/stm32f7xx_hal_dac.c ****        [..]
  75:../Drivers/STM32F7xx_HAL_Driver/Src/stm32f7xx_hal_dac.c ****        The DAC data format can be:
  76:../Drivers/STM32F7xx_HAL_Driver/Src/stm32f7xx_hal_dac.c ****          (#) 8-bit right alignment using DAC_ALIGN_8B_R
  77:../Drivers/STM32F7xx_HAL_Driver/Src/stm32f7xx_hal_dac.c ****          (#) 12-bit left alignment using DAC_ALIGN_12B_L
  78:../Drivers/STM32F7xx_HAL_Driver/Src/stm32f7xx_hal_dac.c ****          (#) 12-bit right alignment using DAC_ALIGN_12B_R
  79:../Drivers/STM32F7xx_HAL_Driver/Src/stm32f7xx_hal_dac.c **** 
  80:../Drivers/STM32F7xx_HAL_Driver/Src/stm32f7xx_hal_dac.c ****        *** DAC data value to voltage correspondence ***
  81:../Drivers/STM32F7xx_HAL_Driver/Src/stm32f7xx_hal_dac.c ****        ================================================
  82:../Drivers/STM32F7xx_HAL_Driver/Src/stm32f7xx_hal_dac.c ****        [..]
  83:../Drivers/STM32F7xx_HAL_Driver/Src/stm32f7xx_hal_dac.c ****        The analog output voltage on each DAC channel pin is determined
  84:../Drivers/STM32F7xx_HAL_Driver/Src/stm32f7xx_hal_dac.c ****        by the following equation:
  85:../Drivers/STM32F7xx_HAL_Driver/Src/stm32f7xx_hal_dac.c ****        [..]
  86:../Drivers/STM32F7xx_HAL_Driver/Src/stm32f7xx_hal_dac.c ****        DAC_OUTx = VREF+ * DOR / 4095
  87:../Drivers/STM32F7xx_HAL_Driver/Src/stm32f7xx_hal_dac.c ****        (+) with  DOR is the Data Output Register
ARM GAS  /tmp/ccQRGNkD.s 			page 3


  88:../Drivers/STM32F7xx_HAL_Driver/Src/stm32f7xx_hal_dac.c ****        [..]
  89:../Drivers/STM32F7xx_HAL_Driver/Src/stm32f7xx_hal_dac.c ****           VREF+ is the input voltage reference (refer to the device datasheet)
  90:../Drivers/STM32F7xx_HAL_Driver/Src/stm32f7xx_hal_dac.c ****        [..]
  91:../Drivers/STM32F7xx_HAL_Driver/Src/stm32f7xx_hal_dac.c ****         e.g. To set DAC_OUT1 to 0.7V, use
  92:../Drivers/STM32F7xx_HAL_Driver/Src/stm32f7xx_hal_dac.c ****        (+) Assuming that VREF+ = 3.3V, DAC_OUT1 = (3.3 * 868) / 4095 = 0.7V
  93:../Drivers/STM32F7xx_HAL_Driver/Src/stm32f7xx_hal_dac.c **** 
  94:../Drivers/STM32F7xx_HAL_Driver/Src/stm32f7xx_hal_dac.c ****        *** DMA requests ***
  95:../Drivers/STM32F7xx_HAL_Driver/Src/stm32f7xx_hal_dac.c ****        =====================
  96:../Drivers/STM32F7xx_HAL_Driver/Src/stm32f7xx_hal_dac.c ****        [..]
  97:../Drivers/STM32F7xx_HAL_Driver/Src/stm32f7xx_hal_dac.c ****        A DMA request can be generated when an external trigger (but not a software trigger)
  98:../Drivers/STM32F7xx_HAL_Driver/Src/stm32f7xx_hal_dac.c ****        occurs if DMA1 requests are enabled using HAL_DAC_Start_DMA().
  99:../Drivers/STM32F7xx_HAL_Driver/Src/stm32f7xx_hal_dac.c ****        DMA1 requests are mapped as following:
 100:../Drivers/STM32F7xx_HAL_Driver/Src/stm32f7xx_hal_dac.c ****       (#) DAC channel1 mapped on DMA1 Stream5 channel7 which must be 
 101:../Drivers/STM32F7xx_HAL_Driver/Src/stm32f7xx_hal_dac.c ****           already configured
 102:../Drivers/STM32F7xx_HAL_Driver/Src/stm32f7xx_hal_dac.c ****       (#) DAC channel2 mapped on DMA1 Stream6 channel7 which must be 
 103:../Drivers/STM32F7xx_HAL_Driver/Src/stm32f7xx_hal_dac.c ****           already configured
 104:../Drivers/STM32F7xx_HAL_Driver/Src/stm32f7xx_hal_dac.c **** 
 105:../Drivers/STM32F7xx_HAL_Driver/Src/stm32f7xx_hal_dac.c ****      [..]
 106:../Drivers/STM32F7xx_HAL_Driver/Src/stm32f7xx_hal_dac.c ****     (@) For Dual mode and specific signal (Triangle and noise) generation please
 107:../Drivers/STM32F7xx_HAL_Driver/Src/stm32f7xx_hal_dac.c ****         refer to Extended Features Driver description
 108:../Drivers/STM32F7xx_HAL_Driver/Src/stm32f7xx_hal_dac.c **** 
 109:../Drivers/STM32F7xx_HAL_Driver/Src/stm32f7xx_hal_dac.c ****                       ##### How to use this driver #####
 110:../Drivers/STM32F7xx_HAL_Driver/Src/stm32f7xx_hal_dac.c ****   ==============================================================================
 111:../Drivers/STM32F7xx_HAL_Driver/Src/stm32f7xx_hal_dac.c ****     [..]
 112:../Drivers/STM32F7xx_HAL_Driver/Src/stm32f7xx_hal_dac.c ****       (+) DAC APB clock must be enabled to get write access to DAC
 113:../Drivers/STM32F7xx_HAL_Driver/Src/stm32f7xx_hal_dac.c ****           registers using HAL_DAC_Init()
 114:../Drivers/STM32F7xx_HAL_Driver/Src/stm32f7xx_hal_dac.c ****       (+) Configure DAC_OUTx (DAC_OUT1: PA4, DAC_OUT2: PA5) in analog mode.
 115:../Drivers/STM32F7xx_HAL_Driver/Src/stm32f7xx_hal_dac.c ****       (+) Configure the DAC channel using HAL_DAC_ConfigChannel() function.
 116:../Drivers/STM32F7xx_HAL_Driver/Src/stm32f7xx_hal_dac.c ****       (+) Enable the DAC channel using HAL_DAC_Start() or HAL_DAC_Start_DMA() functions.
 117:../Drivers/STM32F7xx_HAL_Driver/Src/stm32f7xx_hal_dac.c **** 
 118:../Drivers/STM32F7xx_HAL_Driver/Src/stm32f7xx_hal_dac.c **** 
 119:../Drivers/STM32F7xx_HAL_Driver/Src/stm32f7xx_hal_dac.c ****      *** Polling mode IO operation ***
 120:../Drivers/STM32F7xx_HAL_Driver/Src/stm32f7xx_hal_dac.c ****      =================================
 121:../Drivers/STM32F7xx_HAL_Driver/Src/stm32f7xx_hal_dac.c ****      [..]
 122:../Drivers/STM32F7xx_HAL_Driver/Src/stm32f7xx_hal_dac.c ****        (+) Start the DAC peripheral using HAL_DAC_Start()
 123:../Drivers/STM32F7xx_HAL_Driver/Src/stm32f7xx_hal_dac.c ****        (+) To read the DAC last data output value, use the HAL_DAC_GetValue() function.
 124:../Drivers/STM32F7xx_HAL_Driver/Src/stm32f7xx_hal_dac.c ****        (+) Stop the DAC peripheral using HAL_DAC_Stop()
 125:../Drivers/STM32F7xx_HAL_Driver/Src/stm32f7xx_hal_dac.c **** 
 126:../Drivers/STM32F7xx_HAL_Driver/Src/stm32f7xx_hal_dac.c ****      *** DMA mode IO operation ***
 127:../Drivers/STM32F7xx_HAL_Driver/Src/stm32f7xx_hal_dac.c ****      ==============================
 128:../Drivers/STM32F7xx_HAL_Driver/Src/stm32f7xx_hal_dac.c ****      [..]
 129:../Drivers/STM32F7xx_HAL_Driver/Src/stm32f7xx_hal_dac.c ****        (+) Start the DAC peripheral using HAL_DAC_Start_DMA(), at this stage the user specify the l
 130:../Drivers/STM32F7xx_HAL_Driver/Src/stm32f7xx_hal_dac.c ****            of data to be transferred at each end of conversion
 131:../Drivers/STM32F7xx_HAL_Driver/Src/stm32f7xx_hal_dac.c ****            First issued trigger will start the conversion of the value previously set by HAL_DAC_Se
 132:../Drivers/STM32F7xx_HAL_Driver/Src/stm32f7xx_hal_dac.c ****        (+) At the middle of data transfer HAL_DAC_ConvHalfCpltCallbackCh1() or HAL_DACEx_ConvHalfCp
 133:../Drivers/STM32F7xx_HAL_Driver/Src/stm32f7xx_hal_dac.c ****            function is executed and user can add his own code by customization of function pointer
 134:../Drivers/STM32F7xx_HAL_Driver/Src/stm32f7xx_hal_dac.c ****            HAL_DAC_ConvHalfCpltCallbackCh1() or HAL_DACEx_ConvHalfCpltCallbackCh2()
 135:../Drivers/STM32F7xx_HAL_Driver/Src/stm32f7xx_hal_dac.c ****        (+) At The end of data transfer HAL_DAC_ConvCpltCallbackCh1() or HAL_DACEx_ConvHalfCpltCallb
 136:../Drivers/STM32F7xx_HAL_Driver/Src/stm32f7xx_hal_dac.c ****            function is executed and user can add his own code by customization of function pointer
 137:../Drivers/STM32F7xx_HAL_Driver/Src/stm32f7xx_hal_dac.c ****            HAL_DAC_ConvCpltCallbackCh1() or HAL_DACEx_ConvHalfCpltCallbackCh2()
 138:../Drivers/STM32F7xx_HAL_Driver/Src/stm32f7xx_hal_dac.c ****        (+) In case of transfer Error, HAL_DAC_ErrorCallbackCh1() function is executed and user can
 139:../Drivers/STM32F7xx_HAL_Driver/Src/stm32f7xx_hal_dac.c ****             add his own code by customization of function pointer HAL_DAC_ErrorCallbackCh1
 140:../Drivers/STM32F7xx_HAL_Driver/Src/stm32f7xx_hal_dac.c ****        (+) In case of DMA underrun, DAC interruption triggers and execute internal function HAL_DAC
 141:../Drivers/STM32F7xx_HAL_Driver/Src/stm32f7xx_hal_dac.c ****            HAL_DAC_DMAUnderrunCallbackCh1() or HAL_DACEx_DMAUnderrunCallbackCh2()
 142:../Drivers/STM32F7xx_HAL_Driver/Src/stm32f7xx_hal_dac.c ****            function is executed and user can add his own code by customization of function pointer
 143:../Drivers/STM32F7xx_HAL_Driver/Src/stm32f7xx_hal_dac.c ****            HAL_DAC_DMAUnderrunCallbackCh1() or HAL_DACEx_DMAUnderrunCallbackCh2() and
 144:../Drivers/STM32F7xx_HAL_Driver/Src/stm32f7xx_hal_dac.c ****            add his own code by customization of function pointer HAL_DAC_ErrorCallbackCh1()
ARM GAS  /tmp/ccQRGNkD.s 			page 4


 145:../Drivers/STM32F7xx_HAL_Driver/Src/stm32f7xx_hal_dac.c ****        (+) Stop the DAC peripheral using HAL_DAC_Stop_DMA()
 146:../Drivers/STM32F7xx_HAL_Driver/Src/stm32f7xx_hal_dac.c **** 
 147:../Drivers/STM32F7xx_HAL_Driver/Src/stm32f7xx_hal_dac.c ****     *** Callback registration ***
 148:../Drivers/STM32F7xx_HAL_Driver/Src/stm32f7xx_hal_dac.c ****     =============================================
 149:../Drivers/STM32F7xx_HAL_Driver/Src/stm32f7xx_hal_dac.c ****     [..]
 150:../Drivers/STM32F7xx_HAL_Driver/Src/stm32f7xx_hal_dac.c ****       The compilation define  USE_HAL_DAC_REGISTER_CALLBACKS when set to 1
 151:../Drivers/STM32F7xx_HAL_Driver/Src/stm32f7xx_hal_dac.c ****       allows the user to configure dynamically the driver callbacks.
 152:../Drivers/STM32F7xx_HAL_Driver/Src/stm32f7xx_hal_dac.c **** 
 153:../Drivers/STM32F7xx_HAL_Driver/Src/stm32f7xx_hal_dac.c ****     Use Functions HAL_DAC_RegisterCallback() to register a user callback,
 154:../Drivers/STM32F7xx_HAL_Driver/Src/stm32f7xx_hal_dac.c ****       it allows to register following callbacks:
 155:../Drivers/STM32F7xx_HAL_Driver/Src/stm32f7xx_hal_dac.c ****       (+) ConvCpltCallbackCh1     : callback when a half transfer is completed on Ch1.
 156:../Drivers/STM32F7xx_HAL_Driver/Src/stm32f7xx_hal_dac.c ****       (+) ConvHalfCpltCallbackCh1 : callback when a transfer is completed on Ch1.
 157:../Drivers/STM32F7xx_HAL_Driver/Src/stm32f7xx_hal_dac.c ****       (+) ErrorCallbackCh1        : callback when an error occurs on Ch1.
 158:../Drivers/STM32F7xx_HAL_Driver/Src/stm32f7xx_hal_dac.c ****       (+) DMAUnderrunCallbackCh1  : callback when an underrun error occurs on Ch1.
 159:../Drivers/STM32F7xx_HAL_Driver/Src/stm32f7xx_hal_dac.c ****       (+) ConvCpltCallbackCh2     : callback when a half transfer is completed on Ch2.
 160:../Drivers/STM32F7xx_HAL_Driver/Src/stm32f7xx_hal_dac.c ****       (+) ConvHalfCpltCallbackCh2 : callback when a transfer is completed on Ch2.
 161:../Drivers/STM32F7xx_HAL_Driver/Src/stm32f7xx_hal_dac.c ****       (+) ErrorCallbackCh2        : callback when an error occurs on Ch2.
 162:../Drivers/STM32F7xx_HAL_Driver/Src/stm32f7xx_hal_dac.c ****       (+) DMAUnderrunCallbackCh2  : callback when an underrun error occurs on Ch2.
 163:../Drivers/STM32F7xx_HAL_Driver/Src/stm32f7xx_hal_dac.c ****       (+) MspInitCallback         : DAC MspInit.
 164:../Drivers/STM32F7xx_HAL_Driver/Src/stm32f7xx_hal_dac.c ****       (+) MspDeInitCallback       : DAC MspdeInit.
 165:../Drivers/STM32F7xx_HAL_Driver/Src/stm32f7xx_hal_dac.c ****       This function takes as parameters the HAL peripheral handle, the Callback ID
 166:../Drivers/STM32F7xx_HAL_Driver/Src/stm32f7xx_hal_dac.c ****       and a pointer to the user callback function.
 167:../Drivers/STM32F7xx_HAL_Driver/Src/stm32f7xx_hal_dac.c **** 
 168:../Drivers/STM32F7xx_HAL_Driver/Src/stm32f7xx_hal_dac.c ****     Use function HAL_DAC_UnRegisterCallback() to reset a callback to the default
 169:../Drivers/STM32F7xx_HAL_Driver/Src/stm32f7xx_hal_dac.c ****       weak (surcharged) function. It allows to reset following callbacks:
 170:../Drivers/STM32F7xx_HAL_Driver/Src/stm32f7xx_hal_dac.c ****       (+) ConvCpltCallbackCh1     : callback when a half transfer is completed on Ch1.
 171:../Drivers/STM32F7xx_HAL_Driver/Src/stm32f7xx_hal_dac.c ****       (+) ConvHalfCpltCallbackCh1 : callback when a transfer is completed on Ch1.
 172:../Drivers/STM32F7xx_HAL_Driver/Src/stm32f7xx_hal_dac.c ****       (+) ErrorCallbackCh1        : callback when an error occurs on Ch1.
 173:../Drivers/STM32F7xx_HAL_Driver/Src/stm32f7xx_hal_dac.c ****       (+) DMAUnderrunCallbackCh1  : callback when an underrun error occurs on Ch1.
 174:../Drivers/STM32F7xx_HAL_Driver/Src/stm32f7xx_hal_dac.c ****       (+) ConvCpltCallbackCh2     : callback when a half transfer is completed on Ch2.
 175:../Drivers/STM32F7xx_HAL_Driver/Src/stm32f7xx_hal_dac.c ****       (+) ConvHalfCpltCallbackCh2 : callback when a transfer is completed on Ch2.
 176:../Drivers/STM32F7xx_HAL_Driver/Src/stm32f7xx_hal_dac.c ****       (+) ErrorCallbackCh2        : callback when an error occurs on Ch2.
 177:../Drivers/STM32F7xx_HAL_Driver/Src/stm32f7xx_hal_dac.c ****       (+) DMAUnderrunCallbackCh2  : callback when an underrun error occurs on Ch2.
 178:../Drivers/STM32F7xx_HAL_Driver/Src/stm32f7xx_hal_dac.c ****       (+) MspInitCallback         : DAC MspInit.
 179:../Drivers/STM32F7xx_HAL_Driver/Src/stm32f7xx_hal_dac.c ****       (+) MspDeInitCallback       : DAC MspdeInit.
 180:../Drivers/STM32F7xx_HAL_Driver/Src/stm32f7xx_hal_dac.c ****       (+) All Callbacks
 181:../Drivers/STM32F7xx_HAL_Driver/Src/stm32f7xx_hal_dac.c ****       This function) takes as parameters the HAL peripheral handle and the Callback ID.
 182:../Drivers/STM32F7xx_HAL_Driver/Src/stm32f7xx_hal_dac.c **** 
 183:../Drivers/STM32F7xx_HAL_Driver/Src/stm32f7xx_hal_dac.c ****       By default, after the HAL_DAC_Init and if the state is HAL_DAC_STATE_RESET
 184:../Drivers/STM32F7xx_HAL_Driver/Src/stm32f7xx_hal_dac.c ****       all callbacks are reset to the corresponding legacy weak (surcharged) functions.
 185:../Drivers/STM32F7xx_HAL_Driver/Src/stm32f7xx_hal_dac.c ****       Exception done for MspInit and MspDeInit callbacks that are respectively
 186:../Drivers/STM32F7xx_HAL_Driver/Src/stm32f7xx_hal_dac.c ****       reset to the legacy weak (surcharged) functions in the HAL_DAC_Init
 187:../Drivers/STM32F7xx_HAL_Driver/Src/stm32f7xx_hal_dac.c ****       and  HAL_DAC_DeInit only when these callbacks are null (not registered beforehand).
 188:../Drivers/STM32F7xx_HAL_Driver/Src/stm32f7xx_hal_dac.c ****       If not, MspInit or MspDeInit are not null, the HAL_DAC_Init and HAL_DAC_DeInit
 189:../Drivers/STM32F7xx_HAL_Driver/Src/stm32f7xx_hal_dac.c ****       keep and use the user MspInit/MspDeInit callbacks (registered beforehand)
 190:../Drivers/STM32F7xx_HAL_Driver/Src/stm32f7xx_hal_dac.c **** 
 191:../Drivers/STM32F7xx_HAL_Driver/Src/stm32f7xx_hal_dac.c ****       Callbacks can be registered/unregistered in READY state only.
 192:../Drivers/STM32F7xx_HAL_Driver/Src/stm32f7xx_hal_dac.c ****       Exception done for MspInit/MspDeInit callbacks that can be registered/unregistered
 193:../Drivers/STM32F7xx_HAL_Driver/Src/stm32f7xx_hal_dac.c ****       in READY or RESET state, thus registered (user) MspInit/DeInit callbacks can be used
 194:../Drivers/STM32F7xx_HAL_Driver/Src/stm32f7xx_hal_dac.c ****       during the Init/DeInit.
 195:../Drivers/STM32F7xx_HAL_Driver/Src/stm32f7xx_hal_dac.c ****       In that case first register the MspInit/MspDeInit user callbacks
 196:../Drivers/STM32F7xx_HAL_Driver/Src/stm32f7xx_hal_dac.c ****       using HAL_DAC_RegisterCallback before calling HAL_DAC_DeInit
 197:../Drivers/STM32F7xx_HAL_Driver/Src/stm32f7xx_hal_dac.c ****       or HAL_DAC_Init function.
 198:../Drivers/STM32F7xx_HAL_Driver/Src/stm32f7xx_hal_dac.c **** 
 199:../Drivers/STM32F7xx_HAL_Driver/Src/stm32f7xx_hal_dac.c ****       When The compilation define USE_HAL_DAC_REGISTER_CALLBACKS is set to 0 or
 200:../Drivers/STM32F7xx_HAL_Driver/Src/stm32f7xx_hal_dac.c ****       not defined, the callback registering feature is not available
 201:../Drivers/STM32F7xx_HAL_Driver/Src/stm32f7xx_hal_dac.c ****       and weak (surcharged) callbacks are used.
ARM GAS  /tmp/ccQRGNkD.s 			page 5


 202:../Drivers/STM32F7xx_HAL_Driver/Src/stm32f7xx_hal_dac.c **** 
 203:../Drivers/STM32F7xx_HAL_Driver/Src/stm32f7xx_hal_dac.c ****      *** DAC HAL driver macros list ***
 204:../Drivers/STM32F7xx_HAL_Driver/Src/stm32f7xx_hal_dac.c ****      =============================================
 205:../Drivers/STM32F7xx_HAL_Driver/Src/stm32f7xx_hal_dac.c ****      [..]
 206:../Drivers/STM32F7xx_HAL_Driver/Src/stm32f7xx_hal_dac.c ****        Below the list of most used macros in DAC HAL driver.
 207:../Drivers/STM32F7xx_HAL_Driver/Src/stm32f7xx_hal_dac.c **** 
 208:../Drivers/STM32F7xx_HAL_Driver/Src/stm32f7xx_hal_dac.c ****       (+) __HAL_DAC_ENABLE : Enable the DAC peripheral
 209:../Drivers/STM32F7xx_HAL_Driver/Src/stm32f7xx_hal_dac.c ****       (+) __HAL_DAC_DISABLE : Disable the DAC peripheral
 210:../Drivers/STM32F7xx_HAL_Driver/Src/stm32f7xx_hal_dac.c ****       (+) __HAL_DAC_CLEAR_FLAG: Clear the DAC's pending flags
 211:../Drivers/STM32F7xx_HAL_Driver/Src/stm32f7xx_hal_dac.c ****       (+) __HAL_DAC_GET_FLAG: Get the selected DAC's flag status
 212:../Drivers/STM32F7xx_HAL_Driver/Src/stm32f7xx_hal_dac.c **** 
 213:../Drivers/STM32F7xx_HAL_Driver/Src/stm32f7xx_hal_dac.c ****      [..]
 214:../Drivers/STM32F7xx_HAL_Driver/Src/stm32f7xx_hal_dac.c ****       (@) You can refer to the DAC HAL driver header file for more useful macros
 215:../Drivers/STM32F7xx_HAL_Driver/Src/stm32f7xx_hal_dac.c **** 
 216:../Drivers/STM32F7xx_HAL_Driver/Src/stm32f7xx_hal_dac.c **** @endverbatim
 217:../Drivers/STM32F7xx_HAL_Driver/Src/stm32f7xx_hal_dac.c ****   ******************************************************************************
 218:../Drivers/STM32F7xx_HAL_Driver/Src/stm32f7xx_hal_dac.c ****   */
 219:../Drivers/STM32F7xx_HAL_Driver/Src/stm32f7xx_hal_dac.c **** 
 220:../Drivers/STM32F7xx_HAL_Driver/Src/stm32f7xx_hal_dac.c **** /* Includes ------------------------------------------------------------------*/
 221:../Drivers/STM32F7xx_HAL_Driver/Src/stm32f7xx_hal_dac.c **** #include "stm32f7xx_hal.h"
 222:../Drivers/STM32F7xx_HAL_Driver/Src/stm32f7xx_hal_dac.c **** 
 223:../Drivers/STM32F7xx_HAL_Driver/Src/stm32f7xx_hal_dac.c **** /** @addtogroup STM32F7xx_HAL_Driver
 224:../Drivers/STM32F7xx_HAL_Driver/Src/stm32f7xx_hal_dac.c ****   * @{
 225:../Drivers/STM32F7xx_HAL_Driver/Src/stm32f7xx_hal_dac.c ****   */
 226:../Drivers/STM32F7xx_HAL_Driver/Src/stm32f7xx_hal_dac.c **** 
 227:../Drivers/STM32F7xx_HAL_Driver/Src/stm32f7xx_hal_dac.c **** #ifdef HAL_DAC_MODULE_ENABLED
 228:../Drivers/STM32F7xx_HAL_Driver/Src/stm32f7xx_hal_dac.c **** #if defined(DAC)
 229:../Drivers/STM32F7xx_HAL_Driver/Src/stm32f7xx_hal_dac.c **** 
 230:../Drivers/STM32F7xx_HAL_Driver/Src/stm32f7xx_hal_dac.c **** /** @defgroup DAC DAC
 231:../Drivers/STM32F7xx_HAL_Driver/Src/stm32f7xx_hal_dac.c ****   * @brief DAC driver modules
 232:../Drivers/STM32F7xx_HAL_Driver/Src/stm32f7xx_hal_dac.c ****   * @{
 233:../Drivers/STM32F7xx_HAL_Driver/Src/stm32f7xx_hal_dac.c ****   */
 234:../Drivers/STM32F7xx_HAL_Driver/Src/stm32f7xx_hal_dac.c **** 
 235:../Drivers/STM32F7xx_HAL_Driver/Src/stm32f7xx_hal_dac.c **** /* Private typedef -----------------------------------------------------------*/
 236:../Drivers/STM32F7xx_HAL_Driver/Src/stm32f7xx_hal_dac.c **** /* Private define ------------------------------------------------------------*/
 237:../Drivers/STM32F7xx_HAL_Driver/Src/stm32f7xx_hal_dac.c **** /* Private constants ---------------------------------------------------------*/
 238:../Drivers/STM32F7xx_HAL_Driver/Src/stm32f7xx_hal_dac.c **** /* Private macro -------------------------------------------------------------*/
 239:../Drivers/STM32F7xx_HAL_Driver/Src/stm32f7xx_hal_dac.c **** /* Private variables ---------------------------------------------------------*/
 240:../Drivers/STM32F7xx_HAL_Driver/Src/stm32f7xx_hal_dac.c **** /* Private function prototypes -----------------------------------------------*/
 241:../Drivers/STM32F7xx_HAL_Driver/Src/stm32f7xx_hal_dac.c **** /* Exported functions -------------------------------------------------------*/
 242:../Drivers/STM32F7xx_HAL_Driver/Src/stm32f7xx_hal_dac.c **** 
 243:../Drivers/STM32F7xx_HAL_Driver/Src/stm32f7xx_hal_dac.c **** /** @defgroup DAC_Exported_Functions DAC Exported Functions
 244:../Drivers/STM32F7xx_HAL_Driver/Src/stm32f7xx_hal_dac.c ****   * @{
 245:../Drivers/STM32F7xx_HAL_Driver/Src/stm32f7xx_hal_dac.c ****   */
 246:../Drivers/STM32F7xx_HAL_Driver/Src/stm32f7xx_hal_dac.c **** 
 247:../Drivers/STM32F7xx_HAL_Driver/Src/stm32f7xx_hal_dac.c **** /** @defgroup DAC_Exported_Functions_Group1 Initialization and de-initialization functions
 248:../Drivers/STM32F7xx_HAL_Driver/Src/stm32f7xx_hal_dac.c ****   *  @brief    Initialization and Configuration functions
 249:../Drivers/STM32F7xx_HAL_Driver/Src/stm32f7xx_hal_dac.c ****   *
 250:../Drivers/STM32F7xx_HAL_Driver/Src/stm32f7xx_hal_dac.c **** @verbatim
 251:../Drivers/STM32F7xx_HAL_Driver/Src/stm32f7xx_hal_dac.c ****   ==============================================================================
 252:../Drivers/STM32F7xx_HAL_Driver/Src/stm32f7xx_hal_dac.c ****               ##### Initialization and de-initialization functions #####
 253:../Drivers/STM32F7xx_HAL_Driver/Src/stm32f7xx_hal_dac.c ****   ==============================================================================
 254:../Drivers/STM32F7xx_HAL_Driver/Src/stm32f7xx_hal_dac.c ****     [..]  This section provides functions allowing to:
 255:../Drivers/STM32F7xx_HAL_Driver/Src/stm32f7xx_hal_dac.c ****       (+) Initialize and configure the DAC.
 256:../Drivers/STM32F7xx_HAL_Driver/Src/stm32f7xx_hal_dac.c ****       (+) De-initialize the DAC.
 257:../Drivers/STM32F7xx_HAL_Driver/Src/stm32f7xx_hal_dac.c **** 
 258:../Drivers/STM32F7xx_HAL_Driver/Src/stm32f7xx_hal_dac.c **** @endverbatim
ARM GAS  /tmp/ccQRGNkD.s 			page 6


 259:../Drivers/STM32F7xx_HAL_Driver/Src/stm32f7xx_hal_dac.c ****   * @{
 260:../Drivers/STM32F7xx_HAL_Driver/Src/stm32f7xx_hal_dac.c ****   */
 261:../Drivers/STM32F7xx_HAL_Driver/Src/stm32f7xx_hal_dac.c **** 
 262:../Drivers/STM32F7xx_HAL_Driver/Src/stm32f7xx_hal_dac.c **** /**
 263:../Drivers/STM32F7xx_HAL_Driver/Src/stm32f7xx_hal_dac.c ****   * @brief  Initialize the DAC peripheral according to the specified parameters
 264:../Drivers/STM32F7xx_HAL_Driver/Src/stm32f7xx_hal_dac.c ****   *         in the DAC_InitStruct and initialize the associated handle.
 265:../Drivers/STM32F7xx_HAL_Driver/Src/stm32f7xx_hal_dac.c ****   * @param  hdac pointer to a DAC_HandleTypeDef structure that contains
 266:../Drivers/STM32F7xx_HAL_Driver/Src/stm32f7xx_hal_dac.c ****   *         the configuration information for the specified DAC.
 267:../Drivers/STM32F7xx_HAL_Driver/Src/stm32f7xx_hal_dac.c ****   * @retval HAL status
 268:../Drivers/STM32F7xx_HAL_Driver/Src/stm32f7xx_hal_dac.c ****   */
 269:../Drivers/STM32F7xx_HAL_Driver/Src/stm32f7xx_hal_dac.c **** HAL_StatusTypeDef HAL_DAC_Init(DAC_HandleTypeDef *hdac)
 270:../Drivers/STM32F7xx_HAL_Driver/Src/stm32f7xx_hal_dac.c **** {
 271:../Drivers/STM32F7xx_HAL_Driver/Src/stm32f7xx_hal_dac.c ****   /* Check DAC handle */
 272:../Drivers/STM32F7xx_HAL_Driver/Src/stm32f7xx_hal_dac.c ****   if (hdac == NULL)
 273:../Drivers/STM32F7xx_HAL_Driver/Src/stm32f7xx_hal_dac.c ****   {
 274:../Drivers/STM32F7xx_HAL_Driver/Src/stm32f7xx_hal_dac.c ****     return HAL_ERROR;
 275:../Drivers/STM32F7xx_HAL_Driver/Src/stm32f7xx_hal_dac.c ****   }
 276:../Drivers/STM32F7xx_HAL_Driver/Src/stm32f7xx_hal_dac.c ****   /* Check the parameters */
 277:../Drivers/STM32F7xx_HAL_Driver/Src/stm32f7xx_hal_dac.c ****   assert_param(IS_DAC_ALL_INSTANCE(hdac->Instance));
 278:../Drivers/STM32F7xx_HAL_Driver/Src/stm32f7xx_hal_dac.c **** 
 279:../Drivers/STM32F7xx_HAL_Driver/Src/stm32f7xx_hal_dac.c ****   if (hdac->State == HAL_DAC_STATE_RESET)
 280:../Drivers/STM32F7xx_HAL_Driver/Src/stm32f7xx_hal_dac.c ****   {
 281:../Drivers/STM32F7xx_HAL_Driver/Src/stm32f7xx_hal_dac.c **** #if (USE_HAL_DAC_REGISTER_CALLBACKS == 1)
 282:../Drivers/STM32F7xx_HAL_Driver/Src/stm32f7xx_hal_dac.c ****     /* Init the DAC Callback settings */
 283:../Drivers/STM32F7xx_HAL_Driver/Src/stm32f7xx_hal_dac.c ****     hdac->ConvCpltCallbackCh1           = HAL_DAC_ConvCpltCallbackCh1;
 284:../Drivers/STM32F7xx_HAL_Driver/Src/stm32f7xx_hal_dac.c ****     hdac->ConvHalfCpltCallbackCh1       = HAL_DAC_ConvHalfCpltCallbackCh1;
 285:../Drivers/STM32F7xx_HAL_Driver/Src/stm32f7xx_hal_dac.c ****     hdac->ErrorCallbackCh1              = HAL_DAC_ErrorCallbackCh1;
 286:../Drivers/STM32F7xx_HAL_Driver/Src/stm32f7xx_hal_dac.c ****     hdac->DMAUnderrunCallbackCh1        = HAL_DAC_DMAUnderrunCallbackCh1;
 287:../Drivers/STM32F7xx_HAL_Driver/Src/stm32f7xx_hal_dac.c **** 
 288:../Drivers/STM32F7xx_HAL_Driver/Src/stm32f7xx_hal_dac.c ****     hdac->ConvCpltCallbackCh2           = HAL_DACEx_ConvCpltCallbackCh2;
 289:../Drivers/STM32F7xx_HAL_Driver/Src/stm32f7xx_hal_dac.c ****     hdac->ConvHalfCpltCallbackCh2       = HAL_DACEx_ConvHalfCpltCallbackCh2;
 290:../Drivers/STM32F7xx_HAL_Driver/Src/stm32f7xx_hal_dac.c ****     hdac->ErrorCallbackCh2              = HAL_DACEx_ErrorCallbackCh2;
 291:../Drivers/STM32F7xx_HAL_Driver/Src/stm32f7xx_hal_dac.c ****     hdac->DMAUnderrunCallbackCh2        = HAL_DACEx_DMAUnderrunCallbackCh2;
 292:../Drivers/STM32F7xx_HAL_Driver/Src/stm32f7xx_hal_dac.c **** 
 293:../Drivers/STM32F7xx_HAL_Driver/Src/stm32f7xx_hal_dac.c ****     if (hdac->MspInitCallback == NULL)
 294:../Drivers/STM32F7xx_HAL_Driver/Src/stm32f7xx_hal_dac.c ****     {
 295:../Drivers/STM32F7xx_HAL_Driver/Src/stm32f7xx_hal_dac.c ****       hdac->MspInitCallback             = HAL_DAC_MspInit;
 296:../Drivers/STM32F7xx_HAL_Driver/Src/stm32f7xx_hal_dac.c ****     }
 297:../Drivers/STM32F7xx_HAL_Driver/Src/stm32f7xx_hal_dac.c **** #endif /* USE_HAL_DAC_REGISTER_CALLBACKS */
 298:../Drivers/STM32F7xx_HAL_Driver/Src/stm32f7xx_hal_dac.c **** 
 299:../Drivers/STM32F7xx_HAL_Driver/Src/stm32f7xx_hal_dac.c ****     /* Allocate lock resource and initialize it */
 300:../Drivers/STM32F7xx_HAL_Driver/Src/stm32f7xx_hal_dac.c ****     hdac->Lock = HAL_UNLOCKED;
 301:../Drivers/STM32F7xx_HAL_Driver/Src/stm32f7xx_hal_dac.c **** 
 302:../Drivers/STM32F7xx_HAL_Driver/Src/stm32f7xx_hal_dac.c **** #if (USE_HAL_DAC_REGISTER_CALLBACKS == 1)
 303:../Drivers/STM32F7xx_HAL_Driver/Src/stm32f7xx_hal_dac.c ****     /* Init the low level hardware */
 304:../Drivers/STM32F7xx_HAL_Driver/Src/stm32f7xx_hal_dac.c ****     hdac->MspInitCallback(hdac);
 305:../Drivers/STM32F7xx_HAL_Driver/Src/stm32f7xx_hal_dac.c **** #else
 306:../Drivers/STM32F7xx_HAL_Driver/Src/stm32f7xx_hal_dac.c ****     /* Init the low level hardware */
 307:../Drivers/STM32F7xx_HAL_Driver/Src/stm32f7xx_hal_dac.c ****     HAL_DAC_MspInit(hdac);
 308:../Drivers/STM32F7xx_HAL_Driver/Src/stm32f7xx_hal_dac.c **** #endif /* USE_HAL_DAC_REGISTER_CALLBACKS */
 309:../Drivers/STM32F7xx_HAL_Driver/Src/stm32f7xx_hal_dac.c ****   }
 310:../Drivers/STM32F7xx_HAL_Driver/Src/stm32f7xx_hal_dac.c **** 
 311:../Drivers/STM32F7xx_HAL_Driver/Src/stm32f7xx_hal_dac.c ****   /* Initialize the DAC state*/
 312:../Drivers/STM32F7xx_HAL_Driver/Src/stm32f7xx_hal_dac.c ****   hdac->State = HAL_DAC_STATE_BUSY;
 313:../Drivers/STM32F7xx_HAL_Driver/Src/stm32f7xx_hal_dac.c **** 
 314:../Drivers/STM32F7xx_HAL_Driver/Src/stm32f7xx_hal_dac.c ****   /* Set DAC error code to none */
 315:../Drivers/STM32F7xx_HAL_Driver/Src/stm32f7xx_hal_dac.c ****   hdac->ErrorCode = HAL_DAC_ERROR_NONE;
ARM GAS  /tmp/ccQRGNkD.s 			page 7


 316:../Drivers/STM32F7xx_HAL_Driver/Src/stm32f7xx_hal_dac.c **** 
 317:../Drivers/STM32F7xx_HAL_Driver/Src/stm32f7xx_hal_dac.c ****   /* Initialize the DAC state*/
 318:../Drivers/STM32F7xx_HAL_Driver/Src/stm32f7xx_hal_dac.c ****   hdac->State = HAL_DAC_STATE_READY;
 319:../Drivers/STM32F7xx_HAL_Driver/Src/stm32f7xx_hal_dac.c **** 
 320:../Drivers/STM32F7xx_HAL_Driver/Src/stm32f7xx_hal_dac.c ****   /* Return function status */
 321:../Drivers/STM32F7xx_HAL_Driver/Src/stm32f7xx_hal_dac.c ****   return HAL_OK;
 322:../Drivers/STM32F7xx_HAL_Driver/Src/stm32f7xx_hal_dac.c **** }
 323:../Drivers/STM32F7xx_HAL_Driver/Src/stm32f7xx_hal_dac.c **** 
 324:../Drivers/STM32F7xx_HAL_Driver/Src/stm32f7xx_hal_dac.c **** /**
 325:../Drivers/STM32F7xx_HAL_Driver/Src/stm32f7xx_hal_dac.c ****   * @brief  Deinitialize the DAC peripheral registers to their default reset values.
 326:../Drivers/STM32F7xx_HAL_Driver/Src/stm32f7xx_hal_dac.c ****   * @param  hdac pointer to a DAC_HandleTypeDef structure that contains
 327:../Drivers/STM32F7xx_HAL_Driver/Src/stm32f7xx_hal_dac.c ****   *         the configuration information for the specified DAC.
 328:../Drivers/STM32F7xx_HAL_Driver/Src/stm32f7xx_hal_dac.c ****   * @retval HAL status
 329:../Drivers/STM32F7xx_HAL_Driver/Src/stm32f7xx_hal_dac.c ****   */
 330:../Drivers/STM32F7xx_HAL_Driver/Src/stm32f7xx_hal_dac.c **** HAL_StatusTypeDef HAL_DAC_DeInit(DAC_HandleTypeDef *hdac)
 331:../Drivers/STM32F7xx_HAL_Driver/Src/stm32f7xx_hal_dac.c **** {
 332:../Drivers/STM32F7xx_HAL_Driver/Src/stm32f7xx_hal_dac.c ****   /* Check DAC handle */
 333:../Drivers/STM32F7xx_HAL_Driver/Src/stm32f7xx_hal_dac.c ****   if (hdac == NULL)
 334:../Drivers/STM32F7xx_HAL_Driver/Src/stm32f7xx_hal_dac.c ****   {
 335:../Drivers/STM32F7xx_HAL_Driver/Src/stm32f7xx_hal_dac.c ****     return HAL_ERROR;
 336:../Drivers/STM32F7xx_HAL_Driver/Src/stm32f7xx_hal_dac.c ****   }
 337:../Drivers/STM32F7xx_HAL_Driver/Src/stm32f7xx_hal_dac.c **** 
 338:../Drivers/STM32F7xx_HAL_Driver/Src/stm32f7xx_hal_dac.c ****   /* Check the parameters */
 339:../Drivers/STM32F7xx_HAL_Driver/Src/stm32f7xx_hal_dac.c ****   assert_param(IS_DAC_ALL_INSTANCE(hdac->Instance));
 340:../Drivers/STM32F7xx_HAL_Driver/Src/stm32f7xx_hal_dac.c **** 
 341:../Drivers/STM32F7xx_HAL_Driver/Src/stm32f7xx_hal_dac.c ****   /* Change DAC state */
 342:../Drivers/STM32F7xx_HAL_Driver/Src/stm32f7xx_hal_dac.c ****   hdac->State = HAL_DAC_STATE_BUSY;
 343:../Drivers/STM32F7xx_HAL_Driver/Src/stm32f7xx_hal_dac.c **** 
 344:../Drivers/STM32F7xx_HAL_Driver/Src/stm32f7xx_hal_dac.c **** #if (USE_HAL_DAC_REGISTER_CALLBACKS == 1)
 345:../Drivers/STM32F7xx_HAL_Driver/Src/stm32f7xx_hal_dac.c ****   if (hdac->MspDeInitCallback == NULL)
 346:../Drivers/STM32F7xx_HAL_Driver/Src/stm32f7xx_hal_dac.c ****   {
 347:../Drivers/STM32F7xx_HAL_Driver/Src/stm32f7xx_hal_dac.c ****     hdac->MspDeInitCallback = HAL_DAC_MspDeInit;
 348:../Drivers/STM32F7xx_HAL_Driver/Src/stm32f7xx_hal_dac.c ****   }
 349:../Drivers/STM32F7xx_HAL_Driver/Src/stm32f7xx_hal_dac.c ****   /* DeInit the low level hardware */
 350:../Drivers/STM32F7xx_HAL_Driver/Src/stm32f7xx_hal_dac.c ****   hdac->MspDeInitCallback(hdac);
 351:../Drivers/STM32F7xx_HAL_Driver/Src/stm32f7xx_hal_dac.c **** #else
 352:../Drivers/STM32F7xx_HAL_Driver/Src/stm32f7xx_hal_dac.c ****   /* DeInit the low level hardware */
 353:../Drivers/STM32F7xx_HAL_Driver/Src/stm32f7xx_hal_dac.c ****   HAL_DAC_MspDeInit(hdac);
 354:../Drivers/STM32F7xx_HAL_Driver/Src/stm32f7xx_hal_dac.c **** #endif /* USE_HAL_DAC_REGISTER_CALLBACKS */
 355:../Drivers/STM32F7xx_HAL_Driver/Src/stm32f7xx_hal_dac.c **** 
 356:../Drivers/STM32F7xx_HAL_Driver/Src/stm32f7xx_hal_dac.c ****   /* Set DAC error code to none */
 357:../Drivers/STM32F7xx_HAL_Driver/Src/stm32f7xx_hal_dac.c ****   hdac->ErrorCode = HAL_DAC_ERROR_NONE;
 358:../Drivers/STM32F7xx_HAL_Driver/Src/stm32f7xx_hal_dac.c **** 
 359:../Drivers/STM32F7xx_HAL_Driver/Src/stm32f7xx_hal_dac.c ****   /* Change DAC state */
 360:../Drivers/STM32F7xx_HAL_Driver/Src/stm32f7xx_hal_dac.c ****   hdac->State = HAL_DAC_STATE_RESET;
 361:../Drivers/STM32F7xx_HAL_Driver/Src/stm32f7xx_hal_dac.c **** 
 362:../Drivers/STM32F7xx_HAL_Driver/Src/stm32f7xx_hal_dac.c ****   /* Release Lock */
 363:../Drivers/STM32F7xx_HAL_Driver/Src/stm32f7xx_hal_dac.c ****   __HAL_UNLOCK(hdac);
 364:../Drivers/STM32F7xx_HAL_Driver/Src/stm32f7xx_hal_dac.c **** 
 365:../Drivers/STM32F7xx_HAL_Driver/Src/stm32f7xx_hal_dac.c ****   /* Return function status */
 366:../Drivers/STM32F7xx_HAL_Driver/Src/stm32f7xx_hal_dac.c ****   return HAL_OK;
 367:../Drivers/STM32F7xx_HAL_Driver/Src/stm32f7xx_hal_dac.c **** }
 368:../Drivers/STM32F7xx_HAL_Driver/Src/stm32f7xx_hal_dac.c **** 
 369:../Drivers/STM32F7xx_HAL_Driver/Src/stm32f7xx_hal_dac.c **** /**
 370:../Drivers/STM32F7xx_HAL_Driver/Src/stm32f7xx_hal_dac.c ****   * @brief  Initialize the DAC MSP.
 371:../Drivers/STM32F7xx_HAL_Driver/Src/stm32f7xx_hal_dac.c ****   * @param  hdac pointer to a DAC_HandleTypeDef structure that contains
 372:../Drivers/STM32F7xx_HAL_Driver/Src/stm32f7xx_hal_dac.c ****   *         the configuration information for the specified DAC.
ARM GAS  /tmp/ccQRGNkD.s 			page 8


 373:../Drivers/STM32F7xx_HAL_Driver/Src/stm32f7xx_hal_dac.c ****   * @retval None
 374:../Drivers/STM32F7xx_HAL_Driver/Src/stm32f7xx_hal_dac.c ****   */
 375:../Drivers/STM32F7xx_HAL_Driver/Src/stm32f7xx_hal_dac.c **** __weak void HAL_DAC_MspInit(DAC_HandleTypeDef *hdac)
 376:../Drivers/STM32F7xx_HAL_Driver/Src/stm32f7xx_hal_dac.c **** {
  29              		.loc 1 376 1 view -0
  30              		.cfi_startproc
  31              		@ args = 0, pretend = 0, frame = 0
  32              		@ frame_needed = 0, uses_anonymous_args = 0
  33              		@ link register save eliminated.
 377:../Drivers/STM32F7xx_HAL_Driver/Src/stm32f7xx_hal_dac.c ****   /* Prevent unused argument(s) compilation warning */
 378:../Drivers/STM32F7xx_HAL_Driver/Src/stm32f7xx_hal_dac.c ****   UNUSED(hdac);
  34              		.loc 1 378 3 view .LVU1
 379:../Drivers/STM32F7xx_HAL_Driver/Src/stm32f7xx_hal_dac.c **** 
 380:../Drivers/STM32F7xx_HAL_Driver/Src/stm32f7xx_hal_dac.c ****   /* NOTE : This function should not be modified, when the callback is needed,
 381:../Drivers/STM32F7xx_HAL_Driver/Src/stm32f7xx_hal_dac.c ****             the HAL_DAC_MspInit could be implemented in the user file
 382:../Drivers/STM32F7xx_HAL_Driver/Src/stm32f7xx_hal_dac.c ****    */
 383:../Drivers/STM32F7xx_HAL_Driver/Src/stm32f7xx_hal_dac.c **** }
  35              		.loc 1 383 1 is_stmt 0 view .LVU2
  36 0000 7047     		bx	lr
  37              		.cfi_endproc
  38              	.LFE143:
  40              		.section	.text.HAL_DAC_Init,"ax",%progbits
  41              		.align	1
  42              		.global	HAL_DAC_Init
  43              		.syntax unified
  44              		.thumb
  45              		.thumb_func
  46              		.fpu fpv5-d16
  48              	HAL_DAC_Init:
  49              	.LVL1:
  50              	.LFB141:
 270:../Drivers/STM32F7xx_HAL_Driver/Src/stm32f7xx_hal_dac.c ****   /* Check DAC handle */
  51              		.loc 1 270 1 is_stmt 1 view -0
  52              		.cfi_startproc
  53              		@ args = 0, pretend = 0, frame = 0
  54              		@ frame_needed = 0, uses_anonymous_args = 0
 272:../Drivers/STM32F7xx_HAL_Driver/Src/stm32f7xx_hal_dac.c ****   {
  55              		.loc 1 272 3 view .LVU4
 272:../Drivers/STM32F7xx_HAL_Driver/Src/stm32f7xx_hal_dac.c ****   {
  56              		.loc 1 272 6 is_stmt 0 view .LVU5
  57 0000 70B1     		cbz	r0, .L5
 270:../Drivers/STM32F7xx_HAL_Driver/Src/stm32f7xx_hal_dac.c ****   /* Check DAC handle */
  58              		.loc 1 270 1 view .LVU6
  59 0002 10B5     		push	{r4, lr}
  60              	.LCFI0:
  61              		.cfi_def_cfa_offset 8
  62              		.cfi_offset 4, -8
  63              		.cfi_offset 14, -4
  64 0004 0446     		mov	r4, r0
 277:../Drivers/STM32F7xx_HAL_Driver/Src/stm32f7xx_hal_dac.c **** 
  65              		.loc 1 277 3 is_stmt 1 view .LVU7
 279:../Drivers/STM32F7xx_HAL_Driver/Src/stm32f7xx_hal_dac.c ****   {
  66              		.loc 1 279 3 view .LVU8
 279:../Drivers/STM32F7xx_HAL_Driver/Src/stm32f7xx_hal_dac.c ****   {
  67              		.loc 1 279 11 is_stmt 0 view .LVU9
  68 0006 0379     		ldrb	r3, [r0, #4]	@ zero_extendqisi2
 279:../Drivers/STM32F7xx_HAL_Driver/Src/stm32f7xx_hal_dac.c ****   {
ARM GAS  /tmp/ccQRGNkD.s 			page 9


  69              		.loc 1 279 6 view .LVU10
  70 0008 33B1     		cbz	r3, .L10
  71              	.LVL2:
  72              	.L4:
 312:../Drivers/STM32F7xx_HAL_Driver/Src/stm32f7xx_hal_dac.c **** 
  73              		.loc 1 312 3 is_stmt 1 view .LVU11
 312:../Drivers/STM32F7xx_HAL_Driver/Src/stm32f7xx_hal_dac.c **** 
  74              		.loc 1 312 15 is_stmt 0 view .LVU12
  75 000a 0223     		movs	r3, #2
  76 000c 2371     		strb	r3, [r4, #4]
 315:../Drivers/STM32F7xx_HAL_Driver/Src/stm32f7xx_hal_dac.c **** 
  77              		.loc 1 315 3 is_stmt 1 view .LVU13
 315:../Drivers/STM32F7xx_HAL_Driver/Src/stm32f7xx_hal_dac.c **** 
  78              		.loc 1 315 19 is_stmt 0 view .LVU14
  79 000e 0020     		movs	r0, #0
  80 0010 2061     		str	r0, [r4, #16]
 318:../Drivers/STM32F7xx_HAL_Driver/Src/stm32f7xx_hal_dac.c **** 
  81              		.loc 1 318 3 is_stmt 1 view .LVU15
 318:../Drivers/STM32F7xx_HAL_Driver/Src/stm32f7xx_hal_dac.c **** 
  82              		.loc 1 318 15 is_stmt 0 view .LVU16
  83 0012 0123     		movs	r3, #1
  84 0014 2371     		strb	r3, [r4, #4]
 321:../Drivers/STM32F7xx_HAL_Driver/Src/stm32f7xx_hal_dac.c **** }
  85              		.loc 1 321 3 is_stmt 1 view .LVU17
 322:../Drivers/STM32F7xx_HAL_Driver/Src/stm32f7xx_hal_dac.c **** 
  86              		.loc 1 322 1 is_stmt 0 view .LVU18
  87 0016 10BD     		pop	{r4, pc}
  88              	.LVL3:
  89              	.L10:
 300:../Drivers/STM32F7xx_HAL_Driver/Src/stm32f7xx_hal_dac.c **** 
  90              		.loc 1 300 5 is_stmt 1 view .LVU19
 300:../Drivers/STM32F7xx_HAL_Driver/Src/stm32f7xx_hal_dac.c **** 
  91              		.loc 1 300 16 is_stmt 0 view .LVU20
  92 0018 4371     		strb	r3, [r0, #5]
 307:../Drivers/STM32F7xx_HAL_Driver/Src/stm32f7xx_hal_dac.c **** #endif /* USE_HAL_DAC_REGISTER_CALLBACKS */
  93              		.loc 1 307 5 is_stmt 1 view .LVU21
  94 001a FFF7FEFF 		bl	HAL_DAC_MspInit
  95              	.LVL4:
 307:../Drivers/STM32F7xx_HAL_Driver/Src/stm32f7xx_hal_dac.c **** #endif /* USE_HAL_DAC_REGISTER_CALLBACKS */
  96              		.loc 1 307 5 is_stmt 0 view .LVU22
  97 001e F4E7     		b	.L4
  98              	.LVL5:
  99              	.L5:
 100              	.LCFI1:
 101              		.cfi_def_cfa_offset 0
 102              		.cfi_restore 4
 103              		.cfi_restore 14
 274:../Drivers/STM32F7xx_HAL_Driver/Src/stm32f7xx_hal_dac.c ****   }
 104              		.loc 1 274 12 view .LVU23
 105 0020 0120     		movs	r0, #1
 106              	.LVL6:
 322:../Drivers/STM32F7xx_HAL_Driver/Src/stm32f7xx_hal_dac.c **** 
 107              		.loc 1 322 1 view .LVU24
 108 0022 7047     		bx	lr
 109              		.cfi_endproc
 110              	.LFE141:
 112              		.section	.text.HAL_DAC_MspDeInit,"ax",%progbits
ARM GAS  /tmp/ccQRGNkD.s 			page 10


 113              		.align	1
 114              		.weak	HAL_DAC_MspDeInit
 115              		.syntax unified
 116              		.thumb
 117              		.thumb_func
 118              		.fpu fpv5-d16
 120              	HAL_DAC_MspDeInit:
 121              	.LVL7:
 122              	.LFB144:
 384:../Drivers/STM32F7xx_HAL_Driver/Src/stm32f7xx_hal_dac.c **** 
 385:../Drivers/STM32F7xx_HAL_Driver/Src/stm32f7xx_hal_dac.c **** /**
 386:../Drivers/STM32F7xx_HAL_Driver/Src/stm32f7xx_hal_dac.c ****   * @brief  DeInitialize the DAC MSP.
 387:../Drivers/STM32F7xx_HAL_Driver/Src/stm32f7xx_hal_dac.c ****   * @param  hdac pointer to a DAC_HandleTypeDef structure that contains
 388:../Drivers/STM32F7xx_HAL_Driver/Src/stm32f7xx_hal_dac.c ****   *         the configuration information for the specified DAC.
 389:../Drivers/STM32F7xx_HAL_Driver/Src/stm32f7xx_hal_dac.c ****   * @retval None
 390:../Drivers/STM32F7xx_HAL_Driver/Src/stm32f7xx_hal_dac.c ****   */
 391:../Drivers/STM32F7xx_HAL_Driver/Src/stm32f7xx_hal_dac.c **** __weak void HAL_DAC_MspDeInit(DAC_HandleTypeDef *hdac)
 392:../Drivers/STM32F7xx_HAL_Driver/Src/stm32f7xx_hal_dac.c **** {
 123              		.loc 1 392 1 is_stmt 1 view -0
 124              		.cfi_startproc
 125              		@ args = 0, pretend = 0, frame = 0
 126              		@ frame_needed = 0, uses_anonymous_args = 0
 127              		@ link register save eliminated.
 393:../Drivers/STM32F7xx_HAL_Driver/Src/stm32f7xx_hal_dac.c ****   /* Prevent unused argument(s) compilation warning */
 394:../Drivers/STM32F7xx_HAL_Driver/Src/stm32f7xx_hal_dac.c ****   UNUSED(hdac);
 128              		.loc 1 394 3 view .LVU26
 395:../Drivers/STM32F7xx_HAL_Driver/Src/stm32f7xx_hal_dac.c **** 
 396:../Drivers/STM32F7xx_HAL_Driver/Src/stm32f7xx_hal_dac.c ****   /* NOTE : This function should not be modified, when the callback is needed,
 397:../Drivers/STM32F7xx_HAL_Driver/Src/stm32f7xx_hal_dac.c ****             the HAL_DAC_MspDeInit could be implemented in the user file
 398:../Drivers/STM32F7xx_HAL_Driver/Src/stm32f7xx_hal_dac.c ****    */
 399:../Drivers/STM32F7xx_HAL_Driver/Src/stm32f7xx_hal_dac.c **** }
 129              		.loc 1 399 1 is_stmt 0 view .LVU27
 130 0000 7047     		bx	lr
 131              		.cfi_endproc
 132              	.LFE144:
 134              		.section	.text.HAL_DAC_DeInit,"ax",%progbits
 135              		.align	1
 136              		.global	HAL_DAC_DeInit
 137              		.syntax unified
 138              		.thumb
 139              		.thumb_func
 140              		.fpu fpv5-d16
 142              	HAL_DAC_DeInit:
 143              	.LVL8:
 144              	.LFB142:
 331:../Drivers/STM32F7xx_HAL_Driver/Src/stm32f7xx_hal_dac.c ****   /* Check DAC handle */
 145              		.loc 1 331 1 is_stmt 1 view -0
 146              		.cfi_startproc
 147              		@ args = 0, pretend = 0, frame = 0
 148              		@ frame_needed = 0, uses_anonymous_args = 0
 333:../Drivers/STM32F7xx_HAL_Driver/Src/stm32f7xx_hal_dac.c ****   {
 149              		.loc 1 333 3 view .LVU29
 333:../Drivers/STM32F7xx_HAL_Driver/Src/stm32f7xx_hal_dac.c ****   {
 150              		.loc 1 333 6 is_stmt 0 view .LVU30
 151 0000 50B1     		cbz	r0, .L14
 331:../Drivers/STM32F7xx_HAL_Driver/Src/stm32f7xx_hal_dac.c ****   /* Check DAC handle */
 152              		.loc 1 331 1 view .LVU31
ARM GAS  /tmp/ccQRGNkD.s 			page 11


 153 0002 10B5     		push	{r4, lr}
 154              	.LCFI2:
 155              		.cfi_def_cfa_offset 8
 156              		.cfi_offset 4, -8
 157              		.cfi_offset 14, -4
 158 0004 0446     		mov	r4, r0
 339:../Drivers/STM32F7xx_HAL_Driver/Src/stm32f7xx_hal_dac.c **** 
 159              		.loc 1 339 3 is_stmt 1 view .LVU32
 342:../Drivers/STM32F7xx_HAL_Driver/Src/stm32f7xx_hal_dac.c **** 
 160              		.loc 1 342 3 view .LVU33
 342:../Drivers/STM32F7xx_HAL_Driver/Src/stm32f7xx_hal_dac.c **** 
 161              		.loc 1 342 15 is_stmt 0 view .LVU34
 162 0006 0223     		movs	r3, #2
 163 0008 0371     		strb	r3, [r0, #4]
 353:../Drivers/STM32F7xx_HAL_Driver/Src/stm32f7xx_hal_dac.c **** #endif /* USE_HAL_DAC_REGISTER_CALLBACKS */
 164              		.loc 1 353 3 is_stmt 1 view .LVU35
 165 000a FFF7FEFF 		bl	HAL_DAC_MspDeInit
 166              	.LVL9:
 357:../Drivers/STM32F7xx_HAL_Driver/Src/stm32f7xx_hal_dac.c **** 
 167              		.loc 1 357 3 view .LVU36
 357:../Drivers/STM32F7xx_HAL_Driver/Src/stm32f7xx_hal_dac.c **** 
 168              		.loc 1 357 19 is_stmt 0 view .LVU37
 169 000e 0020     		movs	r0, #0
 170 0010 2061     		str	r0, [r4, #16]
 360:../Drivers/STM32F7xx_HAL_Driver/Src/stm32f7xx_hal_dac.c **** 
 171              		.loc 1 360 3 is_stmt 1 view .LVU38
 360:../Drivers/STM32F7xx_HAL_Driver/Src/stm32f7xx_hal_dac.c **** 
 172              		.loc 1 360 15 is_stmt 0 view .LVU39
 173 0012 2071     		strb	r0, [r4, #4]
 363:../Drivers/STM32F7xx_HAL_Driver/Src/stm32f7xx_hal_dac.c **** 
 174              		.loc 1 363 3 is_stmt 1 view .LVU40
 363:../Drivers/STM32F7xx_HAL_Driver/Src/stm32f7xx_hal_dac.c **** 
 175              		.loc 1 363 3 view .LVU41
 176 0014 6071     		strb	r0, [r4, #5]
 363:../Drivers/STM32F7xx_HAL_Driver/Src/stm32f7xx_hal_dac.c **** 
 177              		.loc 1 363 3 view .LVU42
 366:../Drivers/STM32F7xx_HAL_Driver/Src/stm32f7xx_hal_dac.c **** }
 178              		.loc 1 366 3 view .LVU43
 367:../Drivers/STM32F7xx_HAL_Driver/Src/stm32f7xx_hal_dac.c **** 
 179              		.loc 1 367 1 is_stmt 0 view .LVU44
 180 0016 10BD     		pop	{r4, pc}
 181              	.LVL10:
 182              	.L14:
 183              	.LCFI3:
 184              		.cfi_def_cfa_offset 0
 185              		.cfi_restore 4
 186              		.cfi_restore 14
 335:../Drivers/STM32F7xx_HAL_Driver/Src/stm32f7xx_hal_dac.c ****   }
 187              		.loc 1 335 12 view .LVU45
 188 0018 0120     		movs	r0, #1
 189              	.LVL11:
 367:../Drivers/STM32F7xx_HAL_Driver/Src/stm32f7xx_hal_dac.c **** 
 190              		.loc 1 367 1 view .LVU46
 191 001a 7047     		bx	lr
 192              		.cfi_endproc
 193              	.LFE142:
 195              		.section	.text.HAL_DAC_Start,"ax",%progbits
ARM GAS  /tmp/ccQRGNkD.s 			page 12


 196              		.align	1
 197              		.global	HAL_DAC_Start
 198              		.syntax unified
 199              		.thumb
 200              		.thumb_func
 201              		.fpu fpv5-d16
 203              	HAL_DAC_Start:
 204              	.LVL12:
 205              	.LFB145:
 400:../Drivers/STM32F7xx_HAL_Driver/Src/stm32f7xx_hal_dac.c **** 
 401:../Drivers/STM32F7xx_HAL_Driver/Src/stm32f7xx_hal_dac.c **** /**
 402:../Drivers/STM32F7xx_HAL_Driver/Src/stm32f7xx_hal_dac.c ****   * @}
 403:../Drivers/STM32F7xx_HAL_Driver/Src/stm32f7xx_hal_dac.c ****   */
 404:../Drivers/STM32F7xx_HAL_Driver/Src/stm32f7xx_hal_dac.c **** 
 405:../Drivers/STM32F7xx_HAL_Driver/Src/stm32f7xx_hal_dac.c **** /** @defgroup DAC_Exported_Functions_Group2 IO operation functions
 406:../Drivers/STM32F7xx_HAL_Driver/Src/stm32f7xx_hal_dac.c ****   *  @brief    IO operation functions
 407:../Drivers/STM32F7xx_HAL_Driver/Src/stm32f7xx_hal_dac.c ****   *
 408:../Drivers/STM32F7xx_HAL_Driver/Src/stm32f7xx_hal_dac.c **** @verbatim
 409:../Drivers/STM32F7xx_HAL_Driver/Src/stm32f7xx_hal_dac.c ****   ==============================================================================
 410:../Drivers/STM32F7xx_HAL_Driver/Src/stm32f7xx_hal_dac.c ****              ##### IO operation functions #####
 411:../Drivers/STM32F7xx_HAL_Driver/Src/stm32f7xx_hal_dac.c ****   ==============================================================================
 412:../Drivers/STM32F7xx_HAL_Driver/Src/stm32f7xx_hal_dac.c ****     [..]  This section provides functions allowing to:
 413:../Drivers/STM32F7xx_HAL_Driver/Src/stm32f7xx_hal_dac.c ****       (+) Start conversion.
 414:../Drivers/STM32F7xx_HAL_Driver/Src/stm32f7xx_hal_dac.c ****       (+) Stop conversion.
 415:../Drivers/STM32F7xx_HAL_Driver/Src/stm32f7xx_hal_dac.c ****       (+) Start conversion and enable DMA transfer.
 416:../Drivers/STM32F7xx_HAL_Driver/Src/stm32f7xx_hal_dac.c ****       (+) Stop conversion and disable DMA transfer.
 417:../Drivers/STM32F7xx_HAL_Driver/Src/stm32f7xx_hal_dac.c ****       (+) Get result of conversion.
 418:../Drivers/STM32F7xx_HAL_Driver/Src/stm32f7xx_hal_dac.c **** 
 419:../Drivers/STM32F7xx_HAL_Driver/Src/stm32f7xx_hal_dac.c **** @endverbatim
 420:../Drivers/STM32F7xx_HAL_Driver/Src/stm32f7xx_hal_dac.c ****   * @{
 421:../Drivers/STM32F7xx_HAL_Driver/Src/stm32f7xx_hal_dac.c ****   */
 422:../Drivers/STM32F7xx_HAL_Driver/Src/stm32f7xx_hal_dac.c **** 
 423:../Drivers/STM32F7xx_HAL_Driver/Src/stm32f7xx_hal_dac.c **** /**
 424:../Drivers/STM32F7xx_HAL_Driver/Src/stm32f7xx_hal_dac.c ****   * @brief  Enables DAC and starts conversion of channel.
 425:../Drivers/STM32F7xx_HAL_Driver/Src/stm32f7xx_hal_dac.c ****   * @param  hdac pointer to a DAC_HandleTypeDef structure that contains
 426:../Drivers/STM32F7xx_HAL_Driver/Src/stm32f7xx_hal_dac.c ****   *         the configuration information for the specified DAC.
 427:../Drivers/STM32F7xx_HAL_Driver/Src/stm32f7xx_hal_dac.c ****   * @param  Channel The selected DAC channel.
 428:../Drivers/STM32F7xx_HAL_Driver/Src/stm32f7xx_hal_dac.c ****   *          This parameter can be one of the following values:
 429:../Drivers/STM32F7xx_HAL_Driver/Src/stm32f7xx_hal_dac.c ****   *            @arg DAC_CHANNEL_1: DAC Channel1 selected
 430:../Drivers/STM32F7xx_HAL_Driver/Src/stm32f7xx_hal_dac.c ****   *            @arg DAC_CHANNEL_2: DAC Channel2 selected
 431:../Drivers/STM32F7xx_HAL_Driver/Src/stm32f7xx_hal_dac.c ****   * @retval HAL status
 432:../Drivers/STM32F7xx_HAL_Driver/Src/stm32f7xx_hal_dac.c ****   */
 433:../Drivers/STM32F7xx_HAL_Driver/Src/stm32f7xx_hal_dac.c **** HAL_StatusTypeDef HAL_DAC_Start(DAC_HandleTypeDef *hdac, uint32_t Channel)
 434:../Drivers/STM32F7xx_HAL_Driver/Src/stm32f7xx_hal_dac.c **** {
 206              		.loc 1 434 1 is_stmt 1 view -0
 207              		.cfi_startproc
 208              		@ args = 0, pretend = 0, frame = 0
 209              		@ frame_needed = 0, uses_anonymous_args = 0
 210              		@ link register save eliminated.
 435:../Drivers/STM32F7xx_HAL_Driver/Src/stm32f7xx_hal_dac.c ****   /* Check the parameters */
 436:../Drivers/STM32F7xx_HAL_Driver/Src/stm32f7xx_hal_dac.c ****   assert_param(IS_DAC_CHANNEL(Channel));
 211              		.loc 1 436 3 view .LVU48
 437:../Drivers/STM32F7xx_HAL_Driver/Src/stm32f7xx_hal_dac.c **** 
 438:../Drivers/STM32F7xx_HAL_Driver/Src/stm32f7xx_hal_dac.c ****   /* Process locked */
 439:../Drivers/STM32F7xx_HAL_Driver/Src/stm32f7xx_hal_dac.c ****   __HAL_LOCK(hdac);
 212              		.loc 1 439 3 view .LVU49
 213              		.loc 1 439 3 view .LVU50
ARM GAS  /tmp/ccQRGNkD.s 			page 13


 214 0000 4379     		ldrb	r3, [r0, #5]	@ zero_extendqisi2
 215 0002 012B     		cmp	r3, #1
 216 0004 2ED0     		beq	.L23
 434:../Drivers/STM32F7xx_HAL_Driver/Src/stm32f7xx_hal_dac.c ****   /* Check the parameters */
 217              		.loc 1 434 1 is_stmt 0 discriminator 2 view .LVU51
 218 0006 10B4     		push	{r4}
 219              	.LCFI4:
 220              		.cfi_def_cfa_offset 4
 221              		.cfi_offset 4, -4
 222              		.loc 1 439 3 is_stmt 1 discriminator 2 view .LVU52
 223 0008 0123     		movs	r3, #1
 224 000a 4371     		strb	r3, [r0, #5]
 225              		.loc 1 439 3 discriminator 2 view .LVU53
 440:../Drivers/STM32F7xx_HAL_Driver/Src/stm32f7xx_hal_dac.c **** 
 441:../Drivers/STM32F7xx_HAL_Driver/Src/stm32f7xx_hal_dac.c ****   /* Change DAC state */
 442:../Drivers/STM32F7xx_HAL_Driver/Src/stm32f7xx_hal_dac.c ****   hdac->State = HAL_DAC_STATE_BUSY;
 226              		.loc 1 442 3 discriminator 2 view .LVU54
 227              		.loc 1 442 15 is_stmt 0 discriminator 2 view .LVU55
 228 000c 0222     		movs	r2, #2
 229 000e 0271     		strb	r2, [r0, #4]
 443:../Drivers/STM32F7xx_HAL_Driver/Src/stm32f7xx_hal_dac.c **** 
 444:../Drivers/STM32F7xx_HAL_Driver/Src/stm32f7xx_hal_dac.c ****   /* Enable the Peripheral */
 445:../Drivers/STM32F7xx_HAL_Driver/Src/stm32f7xx_hal_dac.c ****   __HAL_DAC_ENABLE(hdac, Channel);
 230              		.loc 1 445 3 is_stmt 1 discriminator 2 view .LVU56
 231 0010 0468     		ldr	r4, [r0]
 232 0012 2268     		ldr	r2, [r4]
 233 0014 01F0100C 		and	ip, r1, #16
 234 0018 03FA0CF3 		lsl	r3, r3, ip
 235 001c 1343     		orrs	r3, r3, r2
 236 001e 2360     		str	r3, [r4]
 446:../Drivers/STM32F7xx_HAL_Driver/Src/stm32f7xx_hal_dac.c **** 
 447:../Drivers/STM32F7xx_HAL_Driver/Src/stm32f7xx_hal_dac.c ****   if (Channel == DAC_CHANNEL_1)
 237              		.loc 1 447 3 discriminator 2 view .LVU57
 238              		.loc 1 447 6 is_stmt 0 discriminator 2 view .LVU58
 239 0020 91B9     		cbnz	r1, .L21
 448:../Drivers/STM32F7xx_HAL_Driver/Src/stm32f7xx_hal_dac.c ****   {
 449:../Drivers/STM32F7xx_HAL_Driver/Src/stm32f7xx_hal_dac.c ****     /* Check if software trigger enabled */
 450:../Drivers/STM32F7xx_HAL_Driver/Src/stm32f7xx_hal_dac.c ****     if ((hdac->Instance->CR & (DAC_CR_TEN1 | DAC_CR_TSEL1)) == DAC_TRIGGER_SOFTWARE)
 240              		.loc 1 450 5 is_stmt 1 view .LVU59
 241              		.loc 1 450 14 is_stmt 0 view .LVU60
 242 0022 0268     		ldr	r2, [r0]
 243              		.loc 1 450 24 view .LVU61
 244 0024 1368     		ldr	r3, [r2]
 245              		.loc 1 450 29 view .LVU62
 246 0026 03F03C03 		and	r3, r3, #60
 247              		.loc 1 450 8 view .LVU63
 248 002a 3C2B     		cmp	r3, #60
 249 002c 07D0     		beq	.L28
 250              	.LVL13:
 251              	.L22:
 451:../Drivers/STM32F7xx_HAL_Driver/Src/stm32f7xx_hal_dac.c ****     {
 452:../Drivers/STM32F7xx_HAL_Driver/Src/stm32f7xx_hal_dac.c ****       /* Enable the selected DAC software conversion */
 453:../Drivers/STM32F7xx_HAL_Driver/Src/stm32f7xx_hal_dac.c ****       SET_BIT(hdac->Instance->SWTRIGR, DAC_SWTRIGR_SWTRIG1);
 454:../Drivers/STM32F7xx_HAL_Driver/Src/stm32f7xx_hal_dac.c ****     }
 455:../Drivers/STM32F7xx_HAL_Driver/Src/stm32f7xx_hal_dac.c ****   }
 456:../Drivers/STM32F7xx_HAL_Driver/Src/stm32f7xx_hal_dac.c **** 
 457:../Drivers/STM32F7xx_HAL_Driver/Src/stm32f7xx_hal_dac.c ****   else
ARM GAS  /tmp/ccQRGNkD.s 			page 14


 458:../Drivers/STM32F7xx_HAL_Driver/Src/stm32f7xx_hal_dac.c ****   {
 459:../Drivers/STM32F7xx_HAL_Driver/Src/stm32f7xx_hal_dac.c ****     /* Check if software trigger enabled */
 460:../Drivers/STM32F7xx_HAL_Driver/Src/stm32f7xx_hal_dac.c ****     if ((hdac->Instance->CR & (DAC_CR_TEN2 | DAC_CR_TSEL2)) == (DAC_TRIGGER_SOFTWARE << (Channel & 
 461:../Drivers/STM32F7xx_HAL_Driver/Src/stm32f7xx_hal_dac.c ****     {
 462:../Drivers/STM32F7xx_HAL_Driver/Src/stm32f7xx_hal_dac.c ****       /* Enable the selected DAC software conversion*/
 463:../Drivers/STM32F7xx_HAL_Driver/Src/stm32f7xx_hal_dac.c ****       SET_BIT(hdac->Instance->SWTRIGR, DAC_SWTRIGR_SWTRIG2);
 464:../Drivers/STM32F7xx_HAL_Driver/Src/stm32f7xx_hal_dac.c ****     }
 465:../Drivers/STM32F7xx_HAL_Driver/Src/stm32f7xx_hal_dac.c ****   }
 466:../Drivers/STM32F7xx_HAL_Driver/Src/stm32f7xx_hal_dac.c **** 
 467:../Drivers/STM32F7xx_HAL_Driver/Src/stm32f7xx_hal_dac.c **** 
 468:../Drivers/STM32F7xx_HAL_Driver/Src/stm32f7xx_hal_dac.c ****   /* Change DAC state */
 469:../Drivers/STM32F7xx_HAL_Driver/Src/stm32f7xx_hal_dac.c ****   hdac->State = HAL_DAC_STATE_READY;
 252              		.loc 1 469 3 is_stmt 1 view .LVU64
 253              		.loc 1 469 15 is_stmt 0 view .LVU65
 254 002e 0123     		movs	r3, #1
 255 0030 0371     		strb	r3, [r0, #4]
 470:../Drivers/STM32F7xx_HAL_Driver/Src/stm32f7xx_hal_dac.c **** 
 471:../Drivers/STM32F7xx_HAL_Driver/Src/stm32f7xx_hal_dac.c ****   /* Process unlocked */
 472:../Drivers/STM32F7xx_HAL_Driver/Src/stm32f7xx_hal_dac.c ****   __HAL_UNLOCK(hdac);
 256              		.loc 1 472 3 is_stmt 1 view .LVU66
 257              		.loc 1 472 3 view .LVU67
 258 0032 0023     		movs	r3, #0
 259 0034 4371     		strb	r3, [r0, #5]
 260              		.loc 1 472 3 view .LVU68
 473:../Drivers/STM32F7xx_HAL_Driver/Src/stm32f7xx_hal_dac.c **** 
 474:../Drivers/STM32F7xx_HAL_Driver/Src/stm32f7xx_hal_dac.c ****   /* Return function status */
 475:../Drivers/STM32F7xx_HAL_Driver/Src/stm32f7xx_hal_dac.c ****   return HAL_OK;
 261              		.loc 1 475 3 view .LVU69
 262              		.loc 1 475 10 is_stmt 0 view .LVU70
 263 0036 1846     		mov	r0, r3
 264              	.LVL14:
 476:../Drivers/STM32F7xx_HAL_Driver/Src/stm32f7xx_hal_dac.c **** }
 265              		.loc 1 476 1 view .LVU71
 266 0038 5DF8044B 		ldr	r4, [sp], #4
 267              	.LCFI5:
 268              		.cfi_remember_state
 269              		.cfi_restore 4
 270              		.cfi_def_cfa_offset 0
 271 003c 7047     		bx	lr
 272              	.LVL15:
 273              	.L28:
 274              	.LCFI6:
 275              		.cfi_restore_state
 453:../Drivers/STM32F7xx_HAL_Driver/Src/stm32f7xx_hal_dac.c ****     }
 276              		.loc 1 453 7 is_stmt 1 view .LVU72
 277 003e 5368     		ldr	r3, [r2, #4]
 278 0040 43F00103 		orr	r3, r3, #1
 279 0044 5360     		str	r3, [r2, #4]
 280 0046 F2E7     		b	.L22
 281              	.L21:
 460:../Drivers/STM32F7xx_HAL_Driver/Src/stm32f7xx_hal_dac.c ****     {
 282              		.loc 1 460 5 view .LVU73
 460:../Drivers/STM32F7xx_HAL_Driver/Src/stm32f7xx_hal_dac.c ****     {
 283              		.loc 1 460 14 is_stmt 0 view .LVU74
 284 0048 0168     		ldr	r1, [r0]
 285              	.LVL16:
 460:../Drivers/STM32F7xx_HAL_Driver/Src/stm32f7xx_hal_dac.c ****     {
ARM GAS  /tmp/ccQRGNkD.s 			page 15


 286              		.loc 1 460 24 view .LVU75
 287 004a 0A68     		ldr	r2, [r1]
 460:../Drivers/STM32F7xx_HAL_Driver/Src/stm32f7xx_hal_dac.c ****     {
 288              		.loc 1 460 29 view .LVU76
 289 004c 02F47012 		and	r2, r2, #3932160
 460:../Drivers/STM32F7xx_HAL_Driver/Src/stm32f7xx_hal_dac.c ****     {
 290              		.loc 1 460 86 view .LVU77
 291 0050 3C23     		movs	r3, #60
 292 0052 03FA0CFC 		lsl	ip, r3, ip
 460:../Drivers/STM32F7xx_HAL_Driver/Src/stm32f7xx_hal_dac.c ****     {
 293              		.loc 1 460 8 view .LVU78
 294 0056 6245     		cmp	r2, ip
 295 0058 E9D1     		bne	.L22
 463:../Drivers/STM32F7xx_HAL_Driver/Src/stm32f7xx_hal_dac.c ****     }
 296              		.loc 1 463 7 is_stmt 1 view .LVU79
 297 005a 4B68     		ldr	r3, [r1, #4]
 298 005c 43F00203 		orr	r3, r3, #2
 299 0060 4B60     		str	r3, [r1, #4]
 300 0062 E4E7     		b	.L22
 301              	.LVL17:
 302              	.L23:
 303              	.LCFI7:
 304              		.cfi_def_cfa_offset 0
 305              		.cfi_restore 4
 439:../Drivers/STM32F7xx_HAL_Driver/Src/stm32f7xx_hal_dac.c **** 
 306              		.loc 1 439 3 is_stmt 0 view .LVU80
 307 0064 0220     		movs	r0, #2
 308              	.LVL18:
 309              		.loc 1 476 1 view .LVU81
 310 0066 7047     		bx	lr
 311              		.cfi_endproc
 312              	.LFE145:
 314              		.section	.text.HAL_DAC_Stop,"ax",%progbits
 315              		.align	1
 316              		.global	HAL_DAC_Stop
 317              		.syntax unified
 318              		.thumb
 319              		.thumb_func
 320              		.fpu fpv5-d16
 322              	HAL_DAC_Stop:
 323              	.LVL19:
 324              	.LFB146:
 477:../Drivers/STM32F7xx_HAL_Driver/Src/stm32f7xx_hal_dac.c **** 
 478:../Drivers/STM32F7xx_HAL_Driver/Src/stm32f7xx_hal_dac.c **** /**
 479:../Drivers/STM32F7xx_HAL_Driver/Src/stm32f7xx_hal_dac.c ****   * @brief  Disables DAC and stop conversion of channel.
 480:../Drivers/STM32F7xx_HAL_Driver/Src/stm32f7xx_hal_dac.c ****   * @param  hdac pointer to a DAC_HandleTypeDef structure that contains
 481:../Drivers/STM32F7xx_HAL_Driver/Src/stm32f7xx_hal_dac.c ****   *         the configuration information for the specified DAC.
 482:../Drivers/STM32F7xx_HAL_Driver/Src/stm32f7xx_hal_dac.c ****   * @param  Channel The selected DAC channel.
 483:../Drivers/STM32F7xx_HAL_Driver/Src/stm32f7xx_hal_dac.c ****   *          This parameter can be one of the following values:
 484:../Drivers/STM32F7xx_HAL_Driver/Src/stm32f7xx_hal_dac.c ****   *            @arg DAC_CHANNEL_1: DAC Channel1 selected
 485:../Drivers/STM32F7xx_HAL_Driver/Src/stm32f7xx_hal_dac.c ****   *            @arg DAC_CHANNEL_2: DAC Channel2 selected
 486:../Drivers/STM32F7xx_HAL_Driver/Src/stm32f7xx_hal_dac.c ****   * @retval HAL status
 487:../Drivers/STM32F7xx_HAL_Driver/Src/stm32f7xx_hal_dac.c ****   */
 488:../Drivers/STM32F7xx_HAL_Driver/Src/stm32f7xx_hal_dac.c **** HAL_StatusTypeDef HAL_DAC_Stop(DAC_HandleTypeDef *hdac, uint32_t Channel)
 489:../Drivers/STM32F7xx_HAL_Driver/Src/stm32f7xx_hal_dac.c **** {
 325              		.loc 1 489 1 is_stmt 1 view -0
 326              		.cfi_startproc
ARM GAS  /tmp/ccQRGNkD.s 			page 16


 327              		@ args = 0, pretend = 0, frame = 0
 328              		@ frame_needed = 0, uses_anonymous_args = 0
 329              		@ link register save eliminated.
 330              		.loc 1 489 1 is_stmt 0 view .LVU83
 331 0000 10B4     		push	{r4}
 332              	.LCFI8:
 333              		.cfi_def_cfa_offset 4
 334              		.cfi_offset 4, -4
 490:../Drivers/STM32F7xx_HAL_Driver/Src/stm32f7xx_hal_dac.c ****   /* Check the parameters */
 491:../Drivers/STM32F7xx_HAL_Driver/Src/stm32f7xx_hal_dac.c ****   assert_param(IS_DAC_CHANNEL(Channel));
 335              		.loc 1 491 3 is_stmt 1 view .LVU84
 492:../Drivers/STM32F7xx_HAL_Driver/Src/stm32f7xx_hal_dac.c **** 
 493:../Drivers/STM32F7xx_HAL_Driver/Src/stm32f7xx_hal_dac.c ****   /* Disable the Peripheral */
 494:../Drivers/STM32F7xx_HAL_Driver/Src/stm32f7xx_hal_dac.c ****   __HAL_DAC_DISABLE(hdac, Channel);
 336              		.loc 1 494 3 view .LVU85
 337 0002 0468     		ldr	r4, [r0]
 338 0004 2368     		ldr	r3, [r4]
 339 0006 01F01001 		and	r1, r1, #16
 340              	.LVL20:
 341              		.loc 1 494 3 is_stmt 0 view .LVU86
 342 000a 0122     		movs	r2, #1
 343 000c 02FA01F1 		lsl	r1, r2, r1
 344 0010 23EA0101 		bic	r1, r3, r1
 345 0014 2160     		str	r1, [r4]
 495:../Drivers/STM32F7xx_HAL_Driver/Src/stm32f7xx_hal_dac.c **** 
 496:../Drivers/STM32F7xx_HAL_Driver/Src/stm32f7xx_hal_dac.c ****   /* Change DAC state */
 497:../Drivers/STM32F7xx_HAL_Driver/Src/stm32f7xx_hal_dac.c ****   hdac->State = HAL_DAC_STATE_READY;
 346              		.loc 1 497 3 is_stmt 1 view .LVU87
 347              		.loc 1 497 15 is_stmt 0 view .LVU88
 348 0016 0271     		strb	r2, [r0, #4]
 498:../Drivers/STM32F7xx_HAL_Driver/Src/stm32f7xx_hal_dac.c **** 
 499:../Drivers/STM32F7xx_HAL_Driver/Src/stm32f7xx_hal_dac.c ****   /* Return function status */
 500:../Drivers/STM32F7xx_HAL_Driver/Src/stm32f7xx_hal_dac.c ****   return HAL_OK;
 349              		.loc 1 500 3 is_stmt 1 view .LVU89
 501:../Drivers/STM32F7xx_HAL_Driver/Src/stm32f7xx_hal_dac.c **** }
 350              		.loc 1 501 1 is_stmt 0 view .LVU90
 351 0018 0020     		movs	r0, #0
 352              	.LVL21:
 353              		.loc 1 501 1 view .LVU91
 354 001a 5DF8044B 		ldr	r4, [sp], #4
 355              	.LCFI9:
 356              		.cfi_restore 4
 357              		.cfi_def_cfa_offset 0
 358 001e 7047     		bx	lr
 359              		.cfi_endproc
 360              	.LFE146:
 362              		.section	.text.HAL_DAC_Start_DMA,"ax",%progbits
 363              		.align	1
 364              		.global	HAL_DAC_Start_DMA
 365              		.syntax unified
 366              		.thumb
 367              		.thumb_func
 368              		.fpu fpv5-d16
 370              	HAL_DAC_Start_DMA:
 371              	.LVL22:
 372              	.LFB147:
 502:../Drivers/STM32F7xx_HAL_Driver/Src/stm32f7xx_hal_dac.c **** 
ARM GAS  /tmp/ccQRGNkD.s 			page 17


 503:../Drivers/STM32F7xx_HAL_Driver/Src/stm32f7xx_hal_dac.c **** /**
 504:../Drivers/STM32F7xx_HAL_Driver/Src/stm32f7xx_hal_dac.c ****   * @brief  Enables DAC and starts conversion of channel.
 505:../Drivers/STM32F7xx_HAL_Driver/Src/stm32f7xx_hal_dac.c ****   * @param  hdac pointer to a DAC_HandleTypeDef structure that contains
 506:../Drivers/STM32F7xx_HAL_Driver/Src/stm32f7xx_hal_dac.c ****   *         the configuration information for the specified DAC.
 507:../Drivers/STM32F7xx_HAL_Driver/Src/stm32f7xx_hal_dac.c ****   * @param  Channel The selected DAC channel.
 508:../Drivers/STM32F7xx_HAL_Driver/Src/stm32f7xx_hal_dac.c ****   *          This parameter can be one of the following values:
 509:../Drivers/STM32F7xx_HAL_Driver/Src/stm32f7xx_hal_dac.c ****   *            @arg DAC_CHANNEL_1: DAC Channel1 selected
 510:../Drivers/STM32F7xx_HAL_Driver/Src/stm32f7xx_hal_dac.c ****   *            @arg DAC_CHANNEL_2: DAC Channel2 selected
 511:../Drivers/STM32F7xx_HAL_Driver/Src/stm32f7xx_hal_dac.c ****   * @param  pData The source Buffer address.
 512:../Drivers/STM32F7xx_HAL_Driver/Src/stm32f7xx_hal_dac.c ****   * @param  Length The length of data to be transferred from memory to DAC peripheral
 513:../Drivers/STM32F7xx_HAL_Driver/Src/stm32f7xx_hal_dac.c ****   * @param  Alignment Specifies the data alignment for DAC channel.
 514:../Drivers/STM32F7xx_HAL_Driver/Src/stm32f7xx_hal_dac.c ****   *          This parameter can be one of the following values:
 515:../Drivers/STM32F7xx_HAL_Driver/Src/stm32f7xx_hal_dac.c ****   *            @arg DAC_ALIGN_8B_R: 8bit right data alignment selected
 516:../Drivers/STM32F7xx_HAL_Driver/Src/stm32f7xx_hal_dac.c ****   *            @arg DAC_ALIGN_12B_L: 12bit left data alignment selected
 517:../Drivers/STM32F7xx_HAL_Driver/Src/stm32f7xx_hal_dac.c ****   *            @arg DAC_ALIGN_12B_R: 12bit right data alignment selected
 518:../Drivers/STM32F7xx_HAL_Driver/Src/stm32f7xx_hal_dac.c ****   * @retval HAL status
 519:../Drivers/STM32F7xx_HAL_Driver/Src/stm32f7xx_hal_dac.c ****   */
 520:../Drivers/STM32F7xx_HAL_Driver/Src/stm32f7xx_hal_dac.c **** HAL_StatusTypeDef HAL_DAC_Start_DMA(DAC_HandleTypeDef *hdac, uint32_t Channel, uint32_t *pData, uin
 521:../Drivers/STM32F7xx_HAL_Driver/Src/stm32f7xx_hal_dac.c ****                                     uint32_t Alignment)
 522:../Drivers/STM32F7xx_HAL_Driver/Src/stm32f7xx_hal_dac.c **** {
 373              		.loc 1 522 1 is_stmt 1 view -0
 374              		.cfi_startproc
 375              		@ args = 4, pretend = 0, frame = 0
 376              		@ frame_needed = 0, uses_anonymous_args = 0
 377              		.loc 1 522 1 is_stmt 0 view .LVU93
 378 0000 70B5     		push	{r4, r5, r6, lr}
 379              	.LCFI10:
 380              		.cfi_def_cfa_offset 16
 381              		.cfi_offset 4, -16
 382              		.cfi_offset 5, -12
 383              		.cfi_offset 6, -8
 384              		.cfi_offset 14, -4
 385 0002 0446     		mov	r4, r0
 386 0004 0D46     		mov	r5, r1
 387 0006 1146     		mov	r1, r2
 388              	.LVL23:
 389              		.loc 1 522 1 view .LVU94
 390 0008 049A     		ldr	r2, [sp, #16]
 391              	.LVL24:
 523:../Drivers/STM32F7xx_HAL_Driver/Src/stm32f7xx_hal_dac.c ****   HAL_StatusTypeDef status;
 392              		.loc 1 523 3 is_stmt 1 view .LVU95
 524:../Drivers/STM32F7xx_HAL_Driver/Src/stm32f7xx_hal_dac.c ****   uint32_t tmpreg = 0U;
 393              		.loc 1 524 3 view .LVU96
 525:../Drivers/STM32F7xx_HAL_Driver/Src/stm32f7xx_hal_dac.c **** 
 526:../Drivers/STM32F7xx_HAL_Driver/Src/stm32f7xx_hal_dac.c ****   /* Check the parameters */
 527:../Drivers/STM32F7xx_HAL_Driver/Src/stm32f7xx_hal_dac.c ****   assert_param(IS_DAC_CHANNEL(Channel));
 394              		.loc 1 527 3 view .LVU97
 528:../Drivers/STM32F7xx_HAL_Driver/Src/stm32f7xx_hal_dac.c ****   assert_param(IS_DAC_ALIGN(Alignment));
 395              		.loc 1 528 3 view .LVU98
 529:../Drivers/STM32F7xx_HAL_Driver/Src/stm32f7xx_hal_dac.c **** 
 530:../Drivers/STM32F7xx_HAL_Driver/Src/stm32f7xx_hal_dac.c ****   /* Process locked */
 531:../Drivers/STM32F7xx_HAL_Driver/Src/stm32f7xx_hal_dac.c ****   __HAL_LOCK(hdac);
 396              		.loc 1 531 3 view .LVU99
 397              		.loc 1 531 3 view .LVU100
 398 000a 4079     		ldrb	r0, [r0, #5]	@ zero_extendqisi2
 399              	.LVL25:
 400              		.loc 1 531 3 is_stmt 0 view .LVU101
ARM GAS  /tmp/ccQRGNkD.s 			page 18


 401 000c 0128     		cmp	r0, #1
 402 000e 66D0     		beq	.L42
 403              		.loc 1 531 3 is_stmt 1 discriminator 2 view .LVU102
 404 0010 0120     		movs	r0, #1
 405 0012 6071     		strb	r0, [r4, #5]
 406              		.loc 1 531 3 discriminator 2 view .LVU103
 532:../Drivers/STM32F7xx_HAL_Driver/Src/stm32f7xx_hal_dac.c **** 
 533:../Drivers/STM32F7xx_HAL_Driver/Src/stm32f7xx_hal_dac.c ****   /* Change DAC state */
 534:../Drivers/STM32F7xx_HAL_Driver/Src/stm32f7xx_hal_dac.c ****   hdac->State = HAL_DAC_STATE_BUSY;
 407              		.loc 1 534 3 discriminator 2 view .LVU104
 408              		.loc 1 534 15 is_stmt 0 discriminator 2 view .LVU105
 409 0014 0220     		movs	r0, #2
 410 0016 2071     		strb	r0, [r4, #4]
 535:../Drivers/STM32F7xx_HAL_Driver/Src/stm32f7xx_hal_dac.c **** 
 536:../Drivers/STM32F7xx_HAL_Driver/Src/stm32f7xx_hal_dac.c ****   if (Channel == DAC_CHANNEL_1)
 411              		.loc 1 536 3 is_stmt 1 discriminator 2 view .LVU106
 412              		.loc 1 536 6 is_stmt 0 discriminator 2 view .LVU107
 413 0018 002D     		cmp	r5, #0
 414 001a 34D1     		bne	.L33
 537:../Drivers/STM32F7xx_HAL_Driver/Src/stm32f7xx_hal_dac.c ****   {
 538:../Drivers/STM32F7xx_HAL_Driver/Src/stm32f7xx_hal_dac.c ****     /* Set the DMA transfer complete callback for channel1 */
 539:../Drivers/STM32F7xx_HAL_Driver/Src/stm32f7xx_hal_dac.c ****     hdac->DMA_Handle1->XferCpltCallback = DAC_DMAConvCpltCh1;
 415              		.loc 1 539 5 is_stmt 1 view .LVU108
 416              		.loc 1 539 9 is_stmt 0 view .LVU109
 417 001c A068     		ldr	r0, [r4, #8]
 418              		.loc 1 539 41 view .LVU110
 419 001e 314E     		ldr	r6, .L48
 420 0020 C663     		str	r6, [r0, #60]
 540:../Drivers/STM32F7xx_HAL_Driver/Src/stm32f7xx_hal_dac.c **** 
 541:../Drivers/STM32F7xx_HAL_Driver/Src/stm32f7xx_hal_dac.c ****     /* Set the DMA half transfer complete callback for channel1 */
 542:../Drivers/STM32F7xx_HAL_Driver/Src/stm32f7xx_hal_dac.c ****     hdac->DMA_Handle1->XferHalfCpltCallback = DAC_DMAHalfConvCpltCh1;
 421              		.loc 1 542 5 is_stmt 1 view .LVU111
 422              		.loc 1 542 9 is_stmt 0 view .LVU112
 423 0022 A068     		ldr	r0, [r4, #8]
 424              		.loc 1 542 45 view .LVU113
 425 0024 304E     		ldr	r6, .L48+4
 426 0026 0664     		str	r6, [r0, #64]
 543:../Drivers/STM32F7xx_HAL_Driver/Src/stm32f7xx_hal_dac.c **** 
 544:../Drivers/STM32F7xx_HAL_Driver/Src/stm32f7xx_hal_dac.c ****     /* Set the DMA error callback for channel1 */
 545:../Drivers/STM32F7xx_HAL_Driver/Src/stm32f7xx_hal_dac.c ****     hdac->DMA_Handle1->XferErrorCallback = DAC_DMAErrorCh1;
 427              		.loc 1 545 5 is_stmt 1 view .LVU114
 428              		.loc 1 545 9 is_stmt 0 view .LVU115
 429 0028 A068     		ldr	r0, [r4, #8]
 430              		.loc 1 545 42 view .LVU116
 431 002a 304E     		ldr	r6, .L48+8
 432 002c C664     		str	r6, [r0, #76]
 546:../Drivers/STM32F7xx_HAL_Driver/Src/stm32f7xx_hal_dac.c **** 
 547:../Drivers/STM32F7xx_HAL_Driver/Src/stm32f7xx_hal_dac.c ****     /* Enable the selected DAC channel1 DMA request */
 548:../Drivers/STM32F7xx_HAL_Driver/Src/stm32f7xx_hal_dac.c ****     SET_BIT(hdac->Instance->CR, DAC_CR_DMAEN1);
 433              		.loc 1 548 5 is_stmt 1 view .LVU117
 434 002e 2668     		ldr	r6, [r4]
 435 0030 3068     		ldr	r0, [r6]
 436 0032 40F48050 		orr	r0, r0, #4096
 437 0036 3060     		str	r0, [r6]
 549:../Drivers/STM32F7xx_HAL_Driver/Src/stm32f7xx_hal_dac.c **** 
 550:../Drivers/STM32F7xx_HAL_Driver/Src/stm32f7xx_hal_dac.c ****     /* Case of use of channel 1 */
 551:../Drivers/STM32F7xx_HAL_Driver/Src/stm32f7xx_hal_dac.c ****     switch (Alignment)
ARM GAS  /tmp/ccQRGNkD.s 			page 19


 438              		.loc 1 551 5 view .LVU118
 439 0038 042A     		cmp	r2, #4
 440 003a 1ED0     		beq	.L34
 441 003c 082A     		cmp	r2, #8
 442 003e 1FD0     		beq	.L35
 443 0040 C2B1     		cbz	r2, .L46
 444 0042 2A46     		mov	r2, r5
 445              	.LVL26:
 446              	.L36:
 552:../Drivers/STM32F7xx_HAL_Driver/Src/stm32f7xx_hal_dac.c ****     {
 553:../Drivers/STM32F7xx_HAL_Driver/Src/stm32f7xx_hal_dac.c ****       case DAC_ALIGN_12B_R:
 554:../Drivers/STM32F7xx_HAL_Driver/Src/stm32f7xx_hal_dac.c ****         /* Get DHR12R1 address */
 555:../Drivers/STM32F7xx_HAL_Driver/Src/stm32f7xx_hal_dac.c ****         tmpreg = (uint32_t)&hdac->Instance->DHR12R1;
 556:../Drivers/STM32F7xx_HAL_Driver/Src/stm32f7xx_hal_dac.c ****         break;
 557:../Drivers/STM32F7xx_HAL_Driver/Src/stm32f7xx_hal_dac.c ****       case DAC_ALIGN_12B_L:
 558:../Drivers/STM32F7xx_HAL_Driver/Src/stm32f7xx_hal_dac.c ****         /* Get DHR12L1 address */
 559:../Drivers/STM32F7xx_HAL_Driver/Src/stm32f7xx_hal_dac.c ****         tmpreg = (uint32_t)&hdac->Instance->DHR12L1;
 560:../Drivers/STM32F7xx_HAL_Driver/Src/stm32f7xx_hal_dac.c ****         break;
 561:../Drivers/STM32F7xx_HAL_Driver/Src/stm32f7xx_hal_dac.c ****       case DAC_ALIGN_8B_R:
 562:../Drivers/STM32F7xx_HAL_Driver/Src/stm32f7xx_hal_dac.c ****         /* Get DHR8R1 address */
 563:../Drivers/STM32F7xx_HAL_Driver/Src/stm32f7xx_hal_dac.c ****         tmpreg = (uint32_t)&hdac->Instance->DHR8R1;
 564:../Drivers/STM32F7xx_HAL_Driver/Src/stm32f7xx_hal_dac.c ****         break;
 565:../Drivers/STM32F7xx_HAL_Driver/Src/stm32f7xx_hal_dac.c ****       default:
 566:../Drivers/STM32F7xx_HAL_Driver/Src/stm32f7xx_hal_dac.c ****         break;
 567:../Drivers/STM32F7xx_HAL_Driver/Src/stm32f7xx_hal_dac.c ****     }
 568:../Drivers/STM32F7xx_HAL_Driver/Src/stm32f7xx_hal_dac.c ****   }
 569:../Drivers/STM32F7xx_HAL_Driver/Src/stm32f7xx_hal_dac.c **** 
 570:../Drivers/STM32F7xx_HAL_Driver/Src/stm32f7xx_hal_dac.c ****   else
 571:../Drivers/STM32F7xx_HAL_Driver/Src/stm32f7xx_hal_dac.c ****   {
 572:../Drivers/STM32F7xx_HAL_Driver/Src/stm32f7xx_hal_dac.c ****     /* Set the DMA transfer complete callback for channel2 */
 573:../Drivers/STM32F7xx_HAL_Driver/Src/stm32f7xx_hal_dac.c ****     hdac->DMA_Handle2->XferCpltCallback = DAC_DMAConvCpltCh2;
 574:../Drivers/STM32F7xx_HAL_Driver/Src/stm32f7xx_hal_dac.c **** 
 575:../Drivers/STM32F7xx_HAL_Driver/Src/stm32f7xx_hal_dac.c ****     /* Set the DMA half transfer complete callback for channel2 */
 576:../Drivers/STM32F7xx_HAL_Driver/Src/stm32f7xx_hal_dac.c ****     hdac->DMA_Handle2->XferHalfCpltCallback = DAC_DMAHalfConvCpltCh2;
 577:../Drivers/STM32F7xx_HAL_Driver/Src/stm32f7xx_hal_dac.c **** 
 578:../Drivers/STM32F7xx_HAL_Driver/Src/stm32f7xx_hal_dac.c ****     /* Set the DMA error callback for channel2 */
 579:../Drivers/STM32F7xx_HAL_Driver/Src/stm32f7xx_hal_dac.c ****     hdac->DMA_Handle2->XferErrorCallback = DAC_DMAErrorCh2;
 580:../Drivers/STM32F7xx_HAL_Driver/Src/stm32f7xx_hal_dac.c **** 
 581:../Drivers/STM32F7xx_HAL_Driver/Src/stm32f7xx_hal_dac.c ****     /* Enable the selected DAC channel2 DMA request */
 582:../Drivers/STM32F7xx_HAL_Driver/Src/stm32f7xx_hal_dac.c ****     SET_BIT(hdac->Instance->CR, DAC_CR_DMAEN2);
 583:../Drivers/STM32F7xx_HAL_Driver/Src/stm32f7xx_hal_dac.c **** 
 584:../Drivers/STM32F7xx_HAL_Driver/Src/stm32f7xx_hal_dac.c ****     /* Case of use of channel 2 */
 585:../Drivers/STM32F7xx_HAL_Driver/Src/stm32f7xx_hal_dac.c ****     switch (Alignment)
 586:../Drivers/STM32F7xx_HAL_Driver/Src/stm32f7xx_hal_dac.c ****     {
 587:../Drivers/STM32F7xx_HAL_Driver/Src/stm32f7xx_hal_dac.c ****       case DAC_ALIGN_12B_R:
 588:../Drivers/STM32F7xx_HAL_Driver/Src/stm32f7xx_hal_dac.c ****         /* Get DHR12R2 address */
 589:../Drivers/STM32F7xx_HAL_Driver/Src/stm32f7xx_hal_dac.c ****         tmpreg = (uint32_t)&hdac->Instance->DHR12R2;
 590:../Drivers/STM32F7xx_HAL_Driver/Src/stm32f7xx_hal_dac.c ****         break;
 591:../Drivers/STM32F7xx_HAL_Driver/Src/stm32f7xx_hal_dac.c ****       case DAC_ALIGN_12B_L:
 592:../Drivers/STM32F7xx_HAL_Driver/Src/stm32f7xx_hal_dac.c ****         /* Get DHR12L2 address */
 593:../Drivers/STM32F7xx_HAL_Driver/Src/stm32f7xx_hal_dac.c ****         tmpreg = (uint32_t)&hdac->Instance->DHR12L2;
 594:../Drivers/STM32F7xx_HAL_Driver/Src/stm32f7xx_hal_dac.c ****         break;
 595:../Drivers/STM32F7xx_HAL_Driver/Src/stm32f7xx_hal_dac.c ****       case DAC_ALIGN_8B_R:
 596:../Drivers/STM32F7xx_HAL_Driver/Src/stm32f7xx_hal_dac.c ****         /* Get DHR8R2 address */
 597:../Drivers/STM32F7xx_HAL_Driver/Src/stm32f7xx_hal_dac.c ****         tmpreg = (uint32_t)&hdac->Instance->DHR8R2;
 598:../Drivers/STM32F7xx_HAL_Driver/Src/stm32f7xx_hal_dac.c ****         break;
 599:../Drivers/STM32F7xx_HAL_Driver/Src/stm32f7xx_hal_dac.c ****       default:
ARM GAS  /tmp/ccQRGNkD.s 			page 20


 600:../Drivers/STM32F7xx_HAL_Driver/Src/stm32f7xx_hal_dac.c ****         break;
 601:../Drivers/STM32F7xx_HAL_Driver/Src/stm32f7xx_hal_dac.c ****     }
 602:../Drivers/STM32F7xx_HAL_Driver/Src/stm32f7xx_hal_dac.c ****   }
 603:../Drivers/STM32F7xx_HAL_Driver/Src/stm32f7xx_hal_dac.c **** 
 604:../Drivers/STM32F7xx_HAL_Driver/Src/stm32f7xx_hal_dac.c **** 
 605:../Drivers/STM32F7xx_HAL_Driver/Src/stm32f7xx_hal_dac.c ****   /* Enable the DMA Stream */
 606:../Drivers/STM32F7xx_HAL_Driver/Src/stm32f7xx_hal_dac.c ****   if (Channel == DAC_CHANNEL_1)
 447              		.loc 1 606 3 view .LVU119
 448              		.loc 1 606 6 is_stmt 0 view .LVU120
 449 0044 002D     		cmp	r5, #0
 450 0046 3CD1     		bne	.L39
 607:../Drivers/STM32F7xx_HAL_Driver/Src/stm32f7xx_hal_dac.c ****   {
 608:../Drivers/STM32F7xx_HAL_Driver/Src/stm32f7xx_hal_dac.c ****     /* Enable the DAC DMA underrun interrupt */
 609:../Drivers/STM32F7xx_HAL_Driver/Src/stm32f7xx_hal_dac.c ****     __HAL_DAC_ENABLE_IT(hdac, DAC_IT_DMAUDR1);
 451              		.loc 1 609 5 is_stmt 1 view .LVU121
 452 0048 2668     		ldr	r6, [r4]
 453 004a 3068     		ldr	r0, [r6]
 454 004c 40F40050 		orr	r0, r0, #8192
 455 0050 3060     		str	r0, [r6]
 610:../Drivers/STM32F7xx_HAL_Driver/Src/stm32f7xx_hal_dac.c **** 
 611:../Drivers/STM32F7xx_HAL_Driver/Src/stm32f7xx_hal_dac.c ****     /* Enable the DMA Stream */
 612:../Drivers/STM32F7xx_HAL_Driver/Src/stm32f7xx_hal_dac.c ****     status = HAL_DMA_Start_IT(hdac->DMA_Handle1, (uint32_t)pData, tmpreg, Length);
 456              		.loc 1 612 5 view .LVU122
 457              		.loc 1 612 14 is_stmt 0 view .LVU123
 458 0052 A068     		ldr	r0, [r4, #8]
 459 0054 FFF7FEFF 		bl	HAL_DMA_Start_IT
 460              	.LVL27:
 461              	.L40:
 613:../Drivers/STM32F7xx_HAL_Driver/Src/stm32f7xx_hal_dac.c ****   }
 614:../Drivers/STM32F7xx_HAL_Driver/Src/stm32f7xx_hal_dac.c **** 
 615:../Drivers/STM32F7xx_HAL_Driver/Src/stm32f7xx_hal_dac.c ****   else
 616:../Drivers/STM32F7xx_HAL_Driver/Src/stm32f7xx_hal_dac.c ****   {
 617:../Drivers/STM32F7xx_HAL_Driver/Src/stm32f7xx_hal_dac.c ****     /* Enable the DAC DMA underrun interrupt */
 618:../Drivers/STM32F7xx_HAL_Driver/Src/stm32f7xx_hal_dac.c ****     __HAL_DAC_ENABLE_IT(hdac, DAC_IT_DMAUDR2);
 619:../Drivers/STM32F7xx_HAL_Driver/Src/stm32f7xx_hal_dac.c **** 
 620:../Drivers/STM32F7xx_HAL_Driver/Src/stm32f7xx_hal_dac.c ****     /* Enable the DMA Stream */
 621:../Drivers/STM32F7xx_HAL_Driver/Src/stm32f7xx_hal_dac.c ****     status = HAL_DMA_Start_IT(hdac->DMA_Handle2, (uint32_t)pData, tmpreg, Length);
 622:../Drivers/STM32F7xx_HAL_Driver/Src/stm32f7xx_hal_dac.c ****   }
 623:../Drivers/STM32F7xx_HAL_Driver/Src/stm32f7xx_hal_dac.c **** 
 624:../Drivers/STM32F7xx_HAL_Driver/Src/stm32f7xx_hal_dac.c **** 
 625:../Drivers/STM32F7xx_HAL_Driver/Src/stm32f7xx_hal_dac.c ****   /* Process Unlocked */
 626:../Drivers/STM32F7xx_HAL_Driver/Src/stm32f7xx_hal_dac.c ****   __HAL_UNLOCK(hdac);
 462              		.loc 1 626 3 is_stmt 1 view .LVU124
 463              		.loc 1 626 3 view .LVU125
 464 0058 0023     		movs	r3, #0
 465 005a 6371     		strb	r3, [r4, #5]
 466              		.loc 1 626 3 view .LVU126
 627:../Drivers/STM32F7xx_HAL_Driver/Src/stm32f7xx_hal_dac.c **** 
 628:../Drivers/STM32F7xx_HAL_Driver/Src/stm32f7xx_hal_dac.c ****   if (status == HAL_OK)
 467              		.loc 1 628 3 view .LVU127
 468              		.loc 1 628 6 is_stmt 0 view .LVU128
 469 005c 0028     		cmp	r0, #0
 470 005e 39D1     		bne	.L41
 629:../Drivers/STM32F7xx_HAL_Driver/Src/stm32f7xx_hal_dac.c ****   {
 630:../Drivers/STM32F7xx_HAL_Driver/Src/stm32f7xx_hal_dac.c ****     /* Enable the Peripheral */
 631:../Drivers/STM32F7xx_HAL_Driver/Src/stm32f7xx_hal_dac.c ****     __HAL_DAC_ENABLE(hdac, Channel);
 471              		.loc 1 631 5 is_stmt 1 view .LVU129
ARM GAS  /tmp/ccQRGNkD.s 			page 21


 472 0060 2268     		ldr	r2, [r4]
 473 0062 1368     		ldr	r3, [r2]
 474 0064 05F01005 		and	r5, r5, #16
 475              	.LVL28:
 476              		.loc 1 631 5 is_stmt 0 view .LVU130
 477 0068 0121     		movs	r1, #1
 478 006a 01FA05F5 		lsl	r5, r1, r5
 479 006e 1D43     		orrs	r5, r5, r3
 480 0070 1560     		str	r5, [r2]
 481              	.LVL29:
 482              	.L32:
 632:../Drivers/STM32F7xx_HAL_Driver/Src/stm32f7xx_hal_dac.c ****   }
 633:../Drivers/STM32F7xx_HAL_Driver/Src/stm32f7xx_hal_dac.c ****   else
 634:../Drivers/STM32F7xx_HAL_Driver/Src/stm32f7xx_hal_dac.c ****   {
 635:../Drivers/STM32F7xx_HAL_Driver/Src/stm32f7xx_hal_dac.c ****     hdac->ErrorCode |= HAL_DAC_ERROR_DMA;
 636:../Drivers/STM32F7xx_HAL_Driver/Src/stm32f7xx_hal_dac.c ****   }
 637:../Drivers/STM32F7xx_HAL_Driver/Src/stm32f7xx_hal_dac.c **** 
 638:../Drivers/STM32F7xx_HAL_Driver/Src/stm32f7xx_hal_dac.c ****   /* Return function status */
 639:../Drivers/STM32F7xx_HAL_Driver/Src/stm32f7xx_hal_dac.c ****   return status;
 640:../Drivers/STM32F7xx_HAL_Driver/Src/stm32f7xx_hal_dac.c **** }
 483              		.loc 1 640 1 view .LVU131
 484 0072 70BD     		pop	{r4, r5, r6, pc}
 485              	.LVL30:
 486              	.L46:
 555:../Drivers/STM32F7xx_HAL_Driver/Src/stm32f7xx_hal_dac.c ****         break;
 487              		.loc 1 555 9 is_stmt 1 view .LVU132
 555:../Drivers/STM32F7xx_HAL_Driver/Src/stm32f7xx_hal_dac.c ****         break;
 488              		.loc 1 555 33 is_stmt 0 view .LVU133
 489 0074 2268     		ldr	r2, [r4]
 555:../Drivers/STM32F7xx_HAL_Driver/Src/stm32f7xx_hal_dac.c ****         break;
 490              		.loc 1 555 28 view .LVU134
 491 0076 0832     		adds	r2, r2, #8
 492              	.LVL31:
 556:../Drivers/STM32F7xx_HAL_Driver/Src/stm32f7xx_hal_dac.c ****       case DAC_ALIGN_12B_L:
 493              		.loc 1 556 9 is_stmt 1 view .LVU135
 494 0078 E4E7     		b	.L36
 495              	.LVL32:
 496              	.L34:
 559:../Drivers/STM32F7xx_HAL_Driver/Src/stm32f7xx_hal_dac.c ****         break;
 497              		.loc 1 559 9 view .LVU136
 559:../Drivers/STM32F7xx_HAL_Driver/Src/stm32f7xx_hal_dac.c ****         break;
 498              		.loc 1 559 33 is_stmt 0 view .LVU137
 499 007a 2268     		ldr	r2, [r4]
 559:../Drivers/STM32F7xx_HAL_Driver/Src/stm32f7xx_hal_dac.c ****         break;
 500              		.loc 1 559 28 view .LVU138
 501 007c 0C32     		adds	r2, r2, #12
 502              	.LVL33:
 560:../Drivers/STM32F7xx_HAL_Driver/Src/stm32f7xx_hal_dac.c ****       case DAC_ALIGN_8B_R:
 503              		.loc 1 560 9 is_stmt 1 view .LVU139
 504 007e E1E7     		b	.L36
 505              	.LVL34:
 506              	.L35:
 563:../Drivers/STM32F7xx_HAL_Driver/Src/stm32f7xx_hal_dac.c ****         break;
 507              		.loc 1 563 9 view .LVU140
 563:../Drivers/STM32F7xx_HAL_Driver/Src/stm32f7xx_hal_dac.c ****         break;
 508              		.loc 1 563 33 is_stmt 0 view .LVU141
 509 0080 2268     		ldr	r2, [r4]
ARM GAS  /tmp/ccQRGNkD.s 			page 22


 563:../Drivers/STM32F7xx_HAL_Driver/Src/stm32f7xx_hal_dac.c ****         break;
 510              		.loc 1 563 28 view .LVU142
 511 0082 1032     		adds	r2, r2, #16
 512              	.LVL35:
 564:../Drivers/STM32F7xx_HAL_Driver/Src/stm32f7xx_hal_dac.c ****       default:
 513              		.loc 1 564 9 is_stmt 1 view .LVU143
 514 0084 DEE7     		b	.L36
 515              	.LVL36:
 516              	.L33:
 573:../Drivers/STM32F7xx_HAL_Driver/Src/stm32f7xx_hal_dac.c **** 
 517              		.loc 1 573 5 view .LVU144
 573:../Drivers/STM32F7xx_HAL_Driver/Src/stm32f7xx_hal_dac.c **** 
 518              		.loc 1 573 9 is_stmt 0 view .LVU145
 519 0086 E068     		ldr	r0, [r4, #12]
 573:../Drivers/STM32F7xx_HAL_Driver/Src/stm32f7xx_hal_dac.c **** 
 520              		.loc 1 573 41 view .LVU146
 521 0088 194E     		ldr	r6, .L48+12
 522 008a C663     		str	r6, [r0, #60]
 576:../Drivers/STM32F7xx_HAL_Driver/Src/stm32f7xx_hal_dac.c **** 
 523              		.loc 1 576 5 is_stmt 1 view .LVU147
 576:../Drivers/STM32F7xx_HAL_Driver/Src/stm32f7xx_hal_dac.c **** 
 524              		.loc 1 576 9 is_stmt 0 view .LVU148
 525 008c E068     		ldr	r0, [r4, #12]
 576:../Drivers/STM32F7xx_HAL_Driver/Src/stm32f7xx_hal_dac.c **** 
 526              		.loc 1 576 45 view .LVU149
 527 008e 194E     		ldr	r6, .L48+16
 528 0090 0664     		str	r6, [r0, #64]
 579:../Drivers/STM32F7xx_HAL_Driver/Src/stm32f7xx_hal_dac.c **** 
 529              		.loc 1 579 5 is_stmt 1 view .LVU150
 579:../Drivers/STM32F7xx_HAL_Driver/Src/stm32f7xx_hal_dac.c **** 
 530              		.loc 1 579 9 is_stmt 0 view .LVU151
 531 0092 E068     		ldr	r0, [r4, #12]
 579:../Drivers/STM32F7xx_HAL_Driver/Src/stm32f7xx_hal_dac.c **** 
 532              		.loc 1 579 42 view .LVU152
 533 0094 184E     		ldr	r6, .L48+20
 534 0096 C664     		str	r6, [r0, #76]
 582:../Drivers/STM32F7xx_HAL_Driver/Src/stm32f7xx_hal_dac.c **** 
 535              		.loc 1 582 5 is_stmt 1 view .LVU153
 536 0098 2668     		ldr	r6, [r4]
 537 009a 3068     		ldr	r0, [r6]
 538 009c 40F08050 		orr	r0, r0, #268435456
 539 00a0 3060     		str	r0, [r6]
 585:../Drivers/STM32F7xx_HAL_Driver/Src/stm32f7xx_hal_dac.c ****     {
 540              		.loc 1 585 5 view .LVU154
 541 00a2 042A     		cmp	r2, #4
 542 00a4 07D0     		beq	.L37
 543 00a6 082A     		cmp	r2, #8
 544 00a8 08D0     		beq	.L38
 545 00aa 0AB1     		cbz	r2, .L47
 546 00ac 0022     		movs	r2, #0
 547 00ae C9E7     		b	.L36
 548              	.L47:
 589:../Drivers/STM32F7xx_HAL_Driver/Src/stm32f7xx_hal_dac.c ****         break;
 549              		.loc 1 589 9 view .LVU155
 589:../Drivers/STM32F7xx_HAL_Driver/Src/stm32f7xx_hal_dac.c ****         break;
 550              		.loc 1 589 33 is_stmt 0 view .LVU156
 551 00b0 2268     		ldr	r2, [r4]
ARM GAS  /tmp/ccQRGNkD.s 			page 23


 589:../Drivers/STM32F7xx_HAL_Driver/Src/stm32f7xx_hal_dac.c ****         break;
 552              		.loc 1 589 28 view .LVU157
 553 00b2 1432     		adds	r2, r2, #20
 554              	.LVL37:
 590:../Drivers/STM32F7xx_HAL_Driver/Src/stm32f7xx_hal_dac.c ****       case DAC_ALIGN_12B_L:
 555              		.loc 1 590 9 is_stmt 1 view .LVU158
 556 00b4 C6E7     		b	.L36
 557              	.LVL38:
 558              	.L37:
 593:../Drivers/STM32F7xx_HAL_Driver/Src/stm32f7xx_hal_dac.c ****         break;
 559              		.loc 1 593 9 view .LVU159
 593:../Drivers/STM32F7xx_HAL_Driver/Src/stm32f7xx_hal_dac.c ****         break;
 560              		.loc 1 593 33 is_stmt 0 view .LVU160
 561 00b6 2268     		ldr	r2, [r4]
 593:../Drivers/STM32F7xx_HAL_Driver/Src/stm32f7xx_hal_dac.c ****         break;
 562              		.loc 1 593 28 view .LVU161
 563 00b8 1832     		adds	r2, r2, #24
 564              	.LVL39:
 594:../Drivers/STM32F7xx_HAL_Driver/Src/stm32f7xx_hal_dac.c ****       case DAC_ALIGN_8B_R:
 565              		.loc 1 594 9 is_stmt 1 view .LVU162
 566 00ba C3E7     		b	.L36
 567              	.LVL40:
 568              	.L38:
 597:../Drivers/STM32F7xx_HAL_Driver/Src/stm32f7xx_hal_dac.c ****         break;
 569              		.loc 1 597 9 view .LVU163
 597:../Drivers/STM32F7xx_HAL_Driver/Src/stm32f7xx_hal_dac.c ****         break;
 570              		.loc 1 597 33 is_stmt 0 view .LVU164
 571 00bc 2268     		ldr	r2, [r4]
 597:../Drivers/STM32F7xx_HAL_Driver/Src/stm32f7xx_hal_dac.c ****         break;
 572              		.loc 1 597 28 view .LVU165
 573 00be 1C32     		adds	r2, r2, #28
 574              	.LVL41:
 598:../Drivers/STM32F7xx_HAL_Driver/Src/stm32f7xx_hal_dac.c ****       default:
 575              		.loc 1 598 9 is_stmt 1 view .LVU166
 576 00c0 C0E7     		b	.L36
 577              	.L39:
 618:../Drivers/STM32F7xx_HAL_Driver/Src/stm32f7xx_hal_dac.c **** 
 578              		.loc 1 618 5 view .LVU167
 579 00c2 2668     		ldr	r6, [r4]
 580 00c4 3068     		ldr	r0, [r6]
 581 00c6 40F00050 		orr	r0, r0, #536870912
 582 00ca 3060     		str	r0, [r6]
 621:../Drivers/STM32F7xx_HAL_Driver/Src/stm32f7xx_hal_dac.c ****   }
 583              		.loc 1 621 5 view .LVU168
 621:../Drivers/STM32F7xx_HAL_Driver/Src/stm32f7xx_hal_dac.c ****   }
 584              		.loc 1 621 14 is_stmt 0 view .LVU169
 585 00cc E068     		ldr	r0, [r4, #12]
 586 00ce FFF7FEFF 		bl	HAL_DMA_Start_IT
 587              	.LVL42:
 621:../Drivers/STM32F7xx_HAL_Driver/Src/stm32f7xx_hal_dac.c ****   }
 588              		.loc 1 621 14 view .LVU170
 589 00d2 C1E7     		b	.L40
 590              	.L41:
 635:../Drivers/STM32F7xx_HAL_Driver/Src/stm32f7xx_hal_dac.c ****   }
 591              		.loc 1 635 5 is_stmt 1 view .LVU171
 635:../Drivers/STM32F7xx_HAL_Driver/Src/stm32f7xx_hal_dac.c ****   }
 592              		.loc 1 635 21 is_stmt 0 view .LVU172
ARM GAS  /tmp/ccQRGNkD.s 			page 24


 593 00d4 2369     		ldr	r3, [r4, #16]
 594 00d6 43F00403 		orr	r3, r3, #4
 595 00da 2361     		str	r3, [r4, #16]
 596 00dc C9E7     		b	.L32
 597              	.LVL43:
 598              	.L42:
 531:../Drivers/STM32F7xx_HAL_Driver/Src/stm32f7xx_hal_dac.c **** 
 599              		.loc 1 531 3 view .LVU173
 600 00de 0220     		movs	r0, #2
 601 00e0 C7E7     		b	.L32
 602              	.L49:
 603 00e2 00BF     		.align	2
 604              	.L48:
 605 00e4 00000000 		.word	DAC_DMAConvCpltCh1
 606 00e8 00000000 		.word	DAC_DMAHalfConvCpltCh1
 607 00ec 00000000 		.word	DAC_DMAErrorCh1
 608 00f0 00000000 		.word	DAC_DMAConvCpltCh2
 609 00f4 00000000 		.word	DAC_DMAHalfConvCpltCh2
 610 00f8 00000000 		.word	DAC_DMAErrorCh2
 611              		.cfi_endproc
 612              	.LFE147:
 614              		.section	.text.HAL_DAC_Stop_DMA,"ax",%progbits
 615              		.align	1
 616              		.global	HAL_DAC_Stop_DMA
 617              		.syntax unified
 618              		.thumb
 619              		.thumb_func
 620              		.fpu fpv5-d16
 622              	HAL_DAC_Stop_DMA:
 623              	.LVL44:
 624              	.LFB148:
 641:../Drivers/STM32F7xx_HAL_Driver/Src/stm32f7xx_hal_dac.c **** 
 642:../Drivers/STM32F7xx_HAL_Driver/Src/stm32f7xx_hal_dac.c **** /**
 643:../Drivers/STM32F7xx_HAL_Driver/Src/stm32f7xx_hal_dac.c ****   * @brief  Disables DAC and stop conversion of channel.
 644:../Drivers/STM32F7xx_HAL_Driver/Src/stm32f7xx_hal_dac.c ****   * @param  hdac pointer to a DAC_HandleTypeDef structure that contains
 645:../Drivers/STM32F7xx_HAL_Driver/Src/stm32f7xx_hal_dac.c ****   *         the configuration information for the specified DAC.
 646:../Drivers/STM32F7xx_HAL_Driver/Src/stm32f7xx_hal_dac.c ****   * @param  Channel The selected DAC channel.
 647:../Drivers/STM32F7xx_HAL_Driver/Src/stm32f7xx_hal_dac.c ****   *          This parameter can be one of the following values:
 648:../Drivers/STM32F7xx_HAL_Driver/Src/stm32f7xx_hal_dac.c ****   *            @arg DAC_CHANNEL_1: DAC Channel1 selected
 649:../Drivers/STM32F7xx_HAL_Driver/Src/stm32f7xx_hal_dac.c ****   *            @arg DAC_CHANNEL_2: DAC Channel2 selected
 650:../Drivers/STM32F7xx_HAL_Driver/Src/stm32f7xx_hal_dac.c ****   * @retval HAL status
 651:../Drivers/STM32F7xx_HAL_Driver/Src/stm32f7xx_hal_dac.c ****   */
 652:../Drivers/STM32F7xx_HAL_Driver/Src/stm32f7xx_hal_dac.c **** HAL_StatusTypeDef HAL_DAC_Stop_DMA(DAC_HandleTypeDef *hdac, uint32_t Channel)
 653:../Drivers/STM32F7xx_HAL_Driver/Src/stm32f7xx_hal_dac.c **** {
 625              		.loc 1 653 1 is_stmt 1 view -0
 626              		.cfi_startproc
 627              		@ args = 0, pretend = 0, frame = 0
 628              		@ frame_needed = 0, uses_anonymous_args = 0
 629              		.loc 1 653 1 is_stmt 0 view .LVU175
 630 0000 10B5     		push	{r4, lr}
 631              	.LCFI11:
 632              		.cfi_def_cfa_offset 8
 633              		.cfi_offset 4, -8
 634              		.cfi_offset 14, -4
 635 0002 0446     		mov	r4, r0
 654:../Drivers/STM32F7xx_HAL_Driver/Src/stm32f7xx_hal_dac.c ****   /* Check the parameters */
 655:../Drivers/STM32F7xx_HAL_Driver/Src/stm32f7xx_hal_dac.c ****   assert_param(IS_DAC_CHANNEL(Channel));
ARM GAS  /tmp/ccQRGNkD.s 			page 25


 636              		.loc 1 655 3 is_stmt 1 view .LVU176
 656:../Drivers/STM32F7xx_HAL_Driver/Src/stm32f7xx_hal_dac.c **** 
 657:../Drivers/STM32F7xx_HAL_Driver/Src/stm32f7xx_hal_dac.c ****   /* Disable the selected DAC channel DMA request */
 658:../Drivers/STM32F7xx_HAL_Driver/Src/stm32f7xx_hal_dac.c ****   hdac->Instance->CR &= ~(DAC_CR_DMAEN1 << (Channel & 0x10UL));
 637              		.loc 1 658 3 view .LVU177
 638              		.loc 1 658 7 is_stmt 0 view .LVU178
 639 0004 0368     		ldr	r3, [r0]
 640              		.loc 1 658 22 view .LVU179
 641 0006 1868     		ldr	r0, [r3]
 642              	.LVL45:
 643              		.loc 1 658 53 view .LVU180
 644 0008 01F0100E 		and	lr, r1, #16
 645              		.loc 1 658 41 view .LVU181
 646 000c 4FF4805C 		mov	ip, #4096
 647 0010 0CFA0EFC 		lsl	ip, ip, lr
 648              		.loc 1 658 22 view .LVU182
 649 0014 20EA0C00 		bic	r0, r0, ip
 650 0018 1860     		str	r0, [r3]
 659:../Drivers/STM32F7xx_HAL_Driver/Src/stm32f7xx_hal_dac.c **** 
 660:../Drivers/STM32F7xx_HAL_Driver/Src/stm32f7xx_hal_dac.c ****   /* Disable the Peripheral */
 661:../Drivers/STM32F7xx_HAL_Driver/Src/stm32f7xx_hal_dac.c ****   __HAL_DAC_DISABLE(hdac, Channel);
 651              		.loc 1 661 3 is_stmt 1 view .LVU183
 652 001a 2068     		ldr	r0, [r4]
 653 001c 0368     		ldr	r3, [r0]
 654 001e 0122     		movs	r2, #1
 655 0020 02FA0EF2 		lsl	r2, r2, lr
 656 0024 23EA0203 		bic	r3, r3, r2
 657 0028 0360     		str	r3, [r0]
 662:../Drivers/STM32F7xx_HAL_Driver/Src/stm32f7xx_hal_dac.c **** 
 663:../Drivers/STM32F7xx_HAL_Driver/Src/stm32f7xx_hal_dac.c ****   /* Disable the DMA Stream */
 664:../Drivers/STM32F7xx_HAL_Driver/Src/stm32f7xx_hal_dac.c **** 
 665:../Drivers/STM32F7xx_HAL_Driver/Src/stm32f7xx_hal_dac.c ****   /* Channel1 is used */
 666:../Drivers/STM32F7xx_HAL_Driver/Src/stm32f7xx_hal_dac.c ****   if (Channel == DAC_CHANNEL_1)
 658              		.loc 1 666 3 view .LVU184
 659              		.loc 1 666 6 is_stmt 0 view .LVU185
 660 002a 59B9     		cbnz	r1, .L51
 667:../Drivers/STM32F7xx_HAL_Driver/Src/stm32f7xx_hal_dac.c ****   {
 668:../Drivers/STM32F7xx_HAL_Driver/Src/stm32f7xx_hal_dac.c ****     /* Disable the DMA Stream */
 669:../Drivers/STM32F7xx_HAL_Driver/Src/stm32f7xx_hal_dac.c ****     (void)HAL_DMA_Abort(hdac->DMA_Handle1);
 661              		.loc 1 669 5 is_stmt 1 view .LVU186
 662              		.loc 1 669 11 is_stmt 0 view .LVU187
 663 002c A068     		ldr	r0, [r4, #8]
 664 002e FFF7FEFF 		bl	HAL_DMA_Abort
 665              	.LVL46:
 670:../Drivers/STM32F7xx_HAL_Driver/Src/stm32f7xx_hal_dac.c **** 
 671:../Drivers/STM32F7xx_HAL_Driver/Src/stm32f7xx_hal_dac.c ****     /* Disable the DAC DMA underrun interrupt */
 672:../Drivers/STM32F7xx_HAL_Driver/Src/stm32f7xx_hal_dac.c ****     __HAL_DAC_DISABLE_IT(hdac, DAC_IT_DMAUDR1);
 666              		.loc 1 672 5 is_stmt 1 view .LVU188
 667 0032 2268     		ldr	r2, [r4]
 668 0034 1368     		ldr	r3, [r2]
 669 0036 23F40053 		bic	r3, r3, #8192
 670 003a 1360     		str	r3, [r2]
 671              	.L52:
 673:../Drivers/STM32F7xx_HAL_Driver/Src/stm32f7xx_hal_dac.c ****   }
 674:../Drivers/STM32F7xx_HAL_Driver/Src/stm32f7xx_hal_dac.c **** 
 675:../Drivers/STM32F7xx_HAL_Driver/Src/stm32f7xx_hal_dac.c ****   else /* Channel2 is used for */
 676:../Drivers/STM32F7xx_HAL_Driver/Src/stm32f7xx_hal_dac.c ****   {
ARM GAS  /tmp/ccQRGNkD.s 			page 26


 677:../Drivers/STM32F7xx_HAL_Driver/Src/stm32f7xx_hal_dac.c ****     /* Disable the DMA Stream */
 678:../Drivers/STM32F7xx_HAL_Driver/Src/stm32f7xx_hal_dac.c ****     (void)HAL_DMA_Abort(hdac->DMA_Handle2);
 679:../Drivers/STM32F7xx_HAL_Driver/Src/stm32f7xx_hal_dac.c **** 
 680:../Drivers/STM32F7xx_HAL_Driver/Src/stm32f7xx_hal_dac.c ****     /* Disable the DAC DMA underrun interrupt */
 681:../Drivers/STM32F7xx_HAL_Driver/Src/stm32f7xx_hal_dac.c ****     __HAL_DAC_DISABLE_IT(hdac, DAC_IT_DMAUDR2);
 682:../Drivers/STM32F7xx_HAL_Driver/Src/stm32f7xx_hal_dac.c ****   }
 683:../Drivers/STM32F7xx_HAL_Driver/Src/stm32f7xx_hal_dac.c **** 
 684:../Drivers/STM32F7xx_HAL_Driver/Src/stm32f7xx_hal_dac.c **** 
 685:../Drivers/STM32F7xx_HAL_Driver/Src/stm32f7xx_hal_dac.c ****   /* Change DAC state */
 686:../Drivers/STM32F7xx_HAL_Driver/Src/stm32f7xx_hal_dac.c ****   hdac->State = HAL_DAC_STATE_READY;
 672              		.loc 1 686 3 view .LVU189
 673              		.loc 1 686 15 is_stmt 0 view .LVU190
 674 003c 0123     		movs	r3, #1
 675 003e 2371     		strb	r3, [r4, #4]
 687:../Drivers/STM32F7xx_HAL_Driver/Src/stm32f7xx_hal_dac.c **** 
 688:../Drivers/STM32F7xx_HAL_Driver/Src/stm32f7xx_hal_dac.c ****   /* Return function status */
 689:../Drivers/STM32F7xx_HAL_Driver/Src/stm32f7xx_hal_dac.c ****   return HAL_OK;
 676              		.loc 1 689 3 is_stmt 1 view .LVU191
 690:../Drivers/STM32F7xx_HAL_Driver/Src/stm32f7xx_hal_dac.c **** }
 677              		.loc 1 690 1 is_stmt 0 view .LVU192
 678 0040 0020     		movs	r0, #0
 679 0042 10BD     		pop	{r4, pc}
 680              	.LVL47:
 681              	.L51:
 678:../Drivers/STM32F7xx_HAL_Driver/Src/stm32f7xx_hal_dac.c **** 
 682              		.loc 1 678 5 is_stmt 1 view .LVU193
 678:../Drivers/STM32F7xx_HAL_Driver/Src/stm32f7xx_hal_dac.c **** 
 683              		.loc 1 678 11 is_stmt 0 view .LVU194
 684 0044 E068     		ldr	r0, [r4, #12]
 685 0046 FFF7FEFF 		bl	HAL_DMA_Abort
 686              	.LVL48:
 681:../Drivers/STM32F7xx_HAL_Driver/Src/stm32f7xx_hal_dac.c ****   }
 687              		.loc 1 681 5 is_stmt 1 view .LVU195
 688 004a 2268     		ldr	r2, [r4]
 689 004c 1368     		ldr	r3, [r2]
 690 004e 23F00053 		bic	r3, r3, #536870912
 691 0052 1360     		str	r3, [r2]
 692 0054 F2E7     		b	.L52
 693              		.cfi_endproc
 694              	.LFE148:
 696              		.section	.text.HAL_DAC_SetValue,"ax",%progbits
 697              		.align	1
 698              		.global	HAL_DAC_SetValue
 699              		.syntax unified
 700              		.thumb
 701              		.thumb_func
 702              		.fpu fpv5-d16
 704              	HAL_DAC_SetValue:
 705              	.LVL49:
 706              	.LFB150:
 691:../Drivers/STM32F7xx_HAL_Driver/Src/stm32f7xx_hal_dac.c **** 
 692:../Drivers/STM32F7xx_HAL_Driver/Src/stm32f7xx_hal_dac.c **** /**
 693:../Drivers/STM32F7xx_HAL_Driver/Src/stm32f7xx_hal_dac.c ****   * @brief  Handles DAC interrupt request
 694:../Drivers/STM32F7xx_HAL_Driver/Src/stm32f7xx_hal_dac.c ****   *         This function uses the interruption of DMA
 695:../Drivers/STM32F7xx_HAL_Driver/Src/stm32f7xx_hal_dac.c ****   *         underrun.
 696:../Drivers/STM32F7xx_HAL_Driver/Src/stm32f7xx_hal_dac.c ****   * @param  hdac pointer to a DAC_HandleTypeDef structure that contains
 697:../Drivers/STM32F7xx_HAL_Driver/Src/stm32f7xx_hal_dac.c ****   *         the configuration information for the specified DAC.
ARM GAS  /tmp/ccQRGNkD.s 			page 27


 698:../Drivers/STM32F7xx_HAL_Driver/Src/stm32f7xx_hal_dac.c ****   * @retval None
 699:../Drivers/STM32F7xx_HAL_Driver/Src/stm32f7xx_hal_dac.c ****   */
 700:../Drivers/STM32F7xx_HAL_Driver/Src/stm32f7xx_hal_dac.c **** void HAL_DAC_IRQHandler(DAC_HandleTypeDef *hdac)
 701:../Drivers/STM32F7xx_HAL_Driver/Src/stm32f7xx_hal_dac.c **** {
 702:../Drivers/STM32F7xx_HAL_Driver/Src/stm32f7xx_hal_dac.c ****   if (__HAL_DAC_GET_IT_SOURCE(hdac, DAC_IT_DMAUDR1))
 703:../Drivers/STM32F7xx_HAL_Driver/Src/stm32f7xx_hal_dac.c ****   {
 704:../Drivers/STM32F7xx_HAL_Driver/Src/stm32f7xx_hal_dac.c ****     /* Check underrun flag of DAC channel 1 */
 705:../Drivers/STM32F7xx_HAL_Driver/Src/stm32f7xx_hal_dac.c ****     if (__HAL_DAC_GET_FLAG(hdac, DAC_FLAG_DMAUDR1))
 706:../Drivers/STM32F7xx_HAL_Driver/Src/stm32f7xx_hal_dac.c ****     {
 707:../Drivers/STM32F7xx_HAL_Driver/Src/stm32f7xx_hal_dac.c ****       /* Change DAC state to error state */
 708:../Drivers/STM32F7xx_HAL_Driver/Src/stm32f7xx_hal_dac.c ****       hdac->State = HAL_DAC_STATE_ERROR;
 709:../Drivers/STM32F7xx_HAL_Driver/Src/stm32f7xx_hal_dac.c **** 
 710:../Drivers/STM32F7xx_HAL_Driver/Src/stm32f7xx_hal_dac.c ****       /* Set DAC error code to channel1 DMA underrun error */
 711:../Drivers/STM32F7xx_HAL_Driver/Src/stm32f7xx_hal_dac.c ****       SET_BIT(hdac->ErrorCode, HAL_DAC_ERROR_DMAUNDERRUNCH1);
 712:../Drivers/STM32F7xx_HAL_Driver/Src/stm32f7xx_hal_dac.c **** 
 713:../Drivers/STM32F7xx_HAL_Driver/Src/stm32f7xx_hal_dac.c ****       /* Clear the underrun flag */
 714:../Drivers/STM32F7xx_HAL_Driver/Src/stm32f7xx_hal_dac.c ****       __HAL_DAC_CLEAR_FLAG(hdac, DAC_FLAG_DMAUDR1);
 715:../Drivers/STM32F7xx_HAL_Driver/Src/stm32f7xx_hal_dac.c **** 
 716:../Drivers/STM32F7xx_HAL_Driver/Src/stm32f7xx_hal_dac.c ****       /* Disable the selected DAC channel1 DMA request */
 717:../Drivers/STM32F7xx_HAL_Driver/Src/stm32f7xx_hal_dac.c ****       CLEAR_BIT(hdac->Instance->CR, DAC_CR_DMAEN1);
 718:../Drivers/STM32F7xx_HAL_Driver/Src/stm32f7xx_hal_dac.c **** 
 719:../Drivers/STM32F7xx_HAL_Driver/Src/stm32f7xx_hal_dac.c ****       /* Error callback */
 720:../Drivers/STM32F7xx_HAL_Driver/Src/stm32f7xx_hal_dac.c **** #if (USE_HAL_DAC_REGISTER_CALLBACKS == 1)
 721:../Drivers/STM32F7xx_HAL_Driver/Src/stm32f7xx_hal_dac.c ****       hdac->DMAUnderrunCallbackCh1(hdac);
 722:../Drivers/STM32F7xx_HAL_Driver/Src/stm32f7xx_hal_dac.c **** #else
 723:../Drivers/STM32F7xx_HAL_Driver/Src/stm32f7xx_hal_dac.c ****       HAL_DAC_DMAUnderrunCallbackCh1(hdac);
 724:../Drivers/STM32F7xx_HAL_Driver/Src/stm32f7xx_hal_dac.c **** #endif /* USE_HAL_DAC_REGISTER_CALLBACKS */
 725:../Drivers/STM32F7xx_HAL_Driver/Src/stm32f7xx_hal_dac.c ****     }
 726:../Drivers/STM32F7xx_HAL_Driver/Src/stm32f7xx_hal_dac.c ****   }
 727:../Drivers/STM32F7xx_HAL_Driver/Src/stm32f7xx_hal_dac.c **** 
 728:../Drivers/STM32F7xx_HAL_Driver/Src/stm32f7xx_hal_dac.c **** 
 729:../Drivers/STM32F7xx_HAL_Driver/Src/stm32f7xx_hal_dac.c ****   if (__HAL_DAC_GET_IT_SOURCE(hdac, DAC_IT_DMAUDR2))
 730:../Drivers/STM32F7xx_HAL_Driver/Src/stm32f7xx_hal_dac.c ****   {
 731:../Drivers/STM32F7xx_HAL_Driver/Src/stm32f7xx_hal_dac.c ****     /* Check underrun flag of DAC channel 2 */
 732:../Drivers/STM32F7xx_HAL_Driver/Src/stm32f7xx_hal_dac.c ****     if (__HAL_DAC_GET_FLAG(hdac, DAC_FLAG_DMAUDR2))
 733:../Drivers/STM32F7xx_HAL_Driver/Src/stm32f7xx_hal_dac.c ****     {
 734:../Drivers/STM32F7xx_HAL_Driver/Src/stm32f7xx_hal_dac.c ****       /* Change DAC state to error state */
 735:../Drivers/STM32F7xx_HAL_Driver/Src/stm32f7xx_hal_dac.c ****       hdac->State = HAL_DAC_STATE_ERROR;
 736:../Drivers/STM32F7xx_HAL_Driver/Src/stm32f7xx_hal_dac.c **** 
 737:../Drivers/STM32F7xx_HAL_Driver/Src/stm32f7xx_hal_dac.c ****       /* Set DAC error code to channel2 DMA underrun error */
 738:../Drivers/STM32F7xx_HAL_Driver/Src/stm32f7xx_hal_dac.c ****       SET_BIT(hdac->ErrorCode, HAL_DAC_ERROR_DMAUNDERRUNCH2);
 739:../Drivers/STM32F7xx_HAL_Driver/Src/stm32f7xx_hal_dac.c **** 
 740:../Drivers/STM32F7xx_HAL_Driver/Src/stm32f7xx_hal_dac.c ****       /* Clear the underrun flag */
 741:../Drivers/STM32F7xx_HAL_Driver/Src/stm32f7xx_hal_dac.c ****       __HAL_DAC_CLEAR_FLAG(hdac, DAC_FLAG_DMAUDR2);
 742:../Drivers/STM32F7xx_HAL_Driver/Src/stm32f7xx_hal_dac.c **** 
 743:../Drivers/STM32F7xx_HAL_Driver/Src/stm32f7xx_hal_dac.c ****       /* Disable the selected DAC channel2 DMA request */
 744:../Drivers/STM32F7xx_HAL_Driver/Src/stm32f7xx_hal_dac.c ****       CLEAR_BIT(hdac->Instance->CR, DAC_CR_DMAEN2);
 745:../Drivers/STM32F7xx_HAL_Driver/Src/stm32f7xx_hal_dac.c **** 
 746:../Drivers/STM32F7xx_HAL_Driver/Src/stm32f7xx_hal_dac.c ****       /* Error callback */
 747:../Drivers/STM32F7xx_HAL_Driver/Src/stm32f7xx_hal_dac.c **** #if (USE_HAL_DAC_REGISTER_CALLBACKS == 1)
 748:../Drivers/STM32F7xx_HAL_Driver/Src/stm32f7xx_hal_dac.c ****       hdac->DMAUnderrunCallbackCh2(hdac);
 749:../Drivers/STM32F7xx_HAL_Driver/Src/stm32f7xx_hal_dac.c **** #else
 750:../Drivers/STM32F7xx_HAL_Driver/Src/stm32f7xx_hal_dac.c ****       HAL_DACEx_DMAUnderrunCallbackCh2(hdac);
 751:../Drivers/STM32F7xx_HAL_Driver/Src/stm32f7xx_hal_dac.c **** #endif /* USE_HAL_DAC_REGISTER_CALLBACKS */
 752:../Drivers/STM32F7xx_HAL_Driver/Src/stm32f7xx_hal_dac.c ****     }
 753:../Drivers/STM32F7xx_HAL_Driver/Src/stm32f7xx_hal_dac.c ****   }
 754:../Drivers/STM32F7xx_HAL_Driver/Src/stm32f7xx_hal_dac.c **** 
ARM GAS  /tmp/ccQRGNkD.s 			page 28


 755:../Drivers/STM32F7xx_HAL_Driver/Src/stm32f7xx_hal_dac.c **** }
 756:../Drivers/STM32F7xx_HAL_Driver/Src/stm32f7xx_hal_dac.c **** 
 757:../Drivers/STM32F7xx_HAL_Driver/Src/stm32f7xx_hal_dac.c **** /**
 758:../Drivers/STM32F7xx_HAL_Driver/Src/stm32f7xx_hal_dac.c ****   * @brief  Set the specified data holding register value for DAC channel.
 759:../Drivers/STM32F7xx_HAL_Driver/Src/stm32f7xx_hal_dac.c ****   * @param  hdac pointer to a DAC_HandleTypeDef structure that contains
 760:../Drivers/STM32F7xx_HAL_Driver/Src/stm32f7xx_hal_dac.c ****   *         the configuration information for the specified DAC.
 761:../Drivers/STM32F7xx_HAL_Driver/Src/stm32f7xx_hal_dac.c ****   * @param  Channel The selected DAC channel.
 762:../Drivers/STM32F7xx_HAL_Driver/Src/stm32f7xx_hal_dac.c ****   *          This parameter can be one of the following values:
 763:../Drivers/STM32F7xx_HAL_Driver/Src/stm32f7xx_hal_dac.c ****   *            @arg DAC_CHANNEL_1: DAC Channel1 selected
 764:../Drivers/STM32F7xx_HAL_Driver/Src/stm32f7xx_hal_dac.c ****   *            @arg DAC_CHANNEL_2: DAC Channel2 selected
 765:../Drivers/STM32F7xx_HAL_Driver/Src/stm32f7xx_hal_dac.c ****   * @param  Alignment Specifies the data alignment.
 766:../Drivers/STM32F7xx_HAL_Driver/Src/stm32f7xx_hal_dac.c ****   *          This parameter can be one of the following values:
 767:../Drivers/STM32F7xx_HAL_Driver/Src/stm32f7xx_hal_dac.c ****   *            @arg DAC_ALIGN_8B_R: 8bit right data alignment selected
 768:../Drivers/STM32F7xx_HAL_Driver/Src/stm32f7xx_hal_dac.c ****   *            @arg DAC_ALIGN_12B_L: 12bit left data alignment selected
 769:../Drivers/STM32F7xx_HAL_Driver/Src/stm32f7xx_hal_dac.c ****   *            @arg DAC_ALIGN_12B_R: 12bit right data alignment selected
 770:../Drivers/STM32F7xx_HAL_Driver/Src/stm32f7xx_hal_dac.c ****   * @param  Data Data to be loaded in the selected data holding register.
 771:../Drivers/STM32F7xx_HAL_Driver/Src/stm32f7xx_hal_dac.c ****   * @retval HAL status
 772:../Drivers/STM32F7xx_HAL_Driver/Src/stm32f7xx_hal_dac.c ****   */
 773:../Drivers/STM32F7xx_HAL_Driver/Src/stm32f7xx_hal_dac.c **** HAL_StatusTypeDef HAL_DAC_SetValue(DAC_HandleTypeDef *hdac, uint32_t Channel, uint32_t Alignment, u
 774:../Drivers/STM32F7xx_HAL_Driver/Src/stm32f7xx_hal_dac.c **** {
 707              		.loc 1 774 1 view -0
 708              		.cfi_startproc
 709              		@ args = 0, pretend = 0, frame = 8
 710              		@ frame_needed = 0, uses_anonymous_args = 0
 711              		@ link register save eliminated.
 712              		.loc 1 774 1 is_stmt 0 view .LVU197
 713 0000 10B4     		push	{r4}
 714              	.LCFI12:
 715              		.cfi_def_cfa_offset 4
 716              		.cfi_offset 4, -4
 717 0002 83B0     		sub	sp, sp, #12
 718              	.LCFI13:
 719              		.cfi_def_cfa_offset 16
 775:../Drivers/STM32F7xx_HAL_Driver/Src/stm32f7xx_hal_dac.c ****   __IO uint32_t tmp = 0UL;
 720              		.loc 1 775 3 is_stmt 1 view .LVU198
 721              		.loc 1 775 17 is_stmt 0 view .LVU199
 722 0004 0024     		movs	r4, #0
 723 0006 0194     		str	r4, [sp, #4]
 776:../Drivers/STM32F7xx_HAL_Driver/Src/stm32f7xx_hal_dac.c **** 
 777:../Drivers/STM32F7xx_HAL_Driver/Src/stm32f7xx_hal_dac.c ****   /* Check the parameters */
 778:../Drivers/STM32F7xx_HAL_Driver/Src/stm32f7xx_hal_dac.c ****   assert_param(IS_DAC_CHANNEL(Channel));
 724              		.loc 1 778 3 is_stmt 1 view .LVU200
 779:../Drivers/STM32F7xx_HAL_Driver/Src/stm32f7xx_hal_dac.c ****   assert_param(IS_DAC_ALIGN(Alignment));
 725              		.loc 1 779 3 view .LVU201
 780:../Drivers/STM32F7xx_HAL_Driver/Src/stm32f7xx_hal_dac.c ****   assert_param(IS_DAC_DATA(Data));
 726              		.loc 1 780 3 view .LVU202
 781:../Drivers/STM32F7xx_HAL_Driver/Src/stm32f7xx_hal_dac.c **** 
 782:../Drivers/STM32F7xx_HAL_Driver/Src/stm32f7xx_hal_dac.c ****   tmp = (uint32_t)hdac->Instance;
 727              		.loc 1 782 3 view .LVU203
 728              		.loc 1 782 23 is_stmt 0 view .LVU204
 729 0008 0068     		ldr	r0, [r0]
 730              	.LVL50:
 731              		.loc 1 782 7 view .LVU205
 732 000a 0190     		str	r0, [sp, #4]
 783:../Drivers/STM32F7xx_HAL_Driver/Src/stm32f7xx_hal_dac.c ****   if (Channel == DAC_CHANNEL_1)
 733              		.loc 1 783 3 is_stmt 1 view .LVU206
 734              		.loc 1 783 6 is_stmt 0 view .LVU207
ARM GAS  /tmp/ccQRGNkD.s 			page 29


 735 000c 51B9     		cbnz	r1, .L55
 784:../Drivers/STM32F7xx_HAL_Driver/Src/stm32f7xx_hal_dac.c ****   {
 785:../Drivers/STM32F7xx_HAL_Driver/Src/stm32f7xx_hal_dac.c ****     tmp += DAC_DHR12R1_ALIGNMENT(Alignment);
 736              		.loc 1 785 5 is_stmt 1 view .LVU208
 737              		.loc 1 785 9 is_stmt 0 view .LVU209
 738 000e 0199     		ldr	r1, [sp, #4]
 739              	.LVL51:
 740              		.loc 1 785 9 view .LVU210
 741 0010 0A44     		add	r2, r2, r1
 742              	.LVL52:
 743              		.loc 1 785 9 view .LVU211
 744 0012 0832     		adds	r2, r2, #8
 745 0014 0192     		str	r2, [sp, #4]
 746              	.L56:
 786:../Drivers/STM32F7xx_HAL_Driver/Src/stm32f7xx_hal_dac.c ****   }
 787:../Drivers/STM32F7xx_HAL_Driver/Src/stm32f7xx_hal_dac.c **** 
 788:../Drivers/STM32F7xx_HAL_Driver/Src/stm32f7xx_hal_dac.c ****   else
 789:../Drivers/STM32F7xx_HAL_Driver/Src/stm32f7xx_hal_dac.c ****   {
 790:../Drivers/STM32F7xx_HAL_Driver/Src/stm32f7xx_hal_dac.c ****     tmp += DAC_DHR12R2_ALIGNMENT(Alignment);
 791:../Drivers/STM32F7xx_HAL_Driver/Src/stm32f7xx_hal_dac.c ****   }
 792:../Drivers/STM32F7xx_HAL_Driver/Src/stm32f7xx_hal_dac.c **** 
 793:../Drivers/STM32F7xx_HAL_Driver/Src/stm32f7xx_hal_dac.c **** 
 794:../Drivers/STM32F7xx_HAL_Driver/Src/stm32f7xx_hal_dac.c ****   /* Set the DAC channel selected data holding register */
 795:../Drivers/STM32F7xx_HAL_Driver/Src/stm32f7xx_hal_dac.c ****   *(__IO uint32_t *) tmp = Data;
 747              		.loc 1 795 3 is_stmt 1 view .LVU212
 748              		.loc 1 795 4 is_stmt 0 view .LVU213
 749 0016 019A     		ldr	r2, [sp, #4]
 750              		.loc 1 795 26 view .LVU214
 751 0018 1360     		str	r3, [r2]
 796:../Drivers/STM32F7xx_HAL_Driver/Src/stm32f7xx_hal_dac.c **** 
 797:../Drivers/STM32F7xx_HAL_Driver/Src/stm32f7xx_hal_dac.c ****   /* Return function status */
 798:../Drivers/STM32F7xx_HAL_Driver/Src/stm32f7xx_hal_dac.c ****   return HAL_OK;
 752              		.loc 1 798 3 is_stmt 1 view .LVU215
 799:../Drivers/STM32F7xx_HAL_Driver/Src/stm32f7xx_hal_dac.c **** }
 753              		.loc 1 799 1 is_stmt 0 view .LVU216
 754 001a 0020     		movs	r0, #0
 755 001c 03B0     		add	sp, sp, #12
 756              	.LCFI14:
 757              		.cfi_remember_state
 758              		.cfi_def_cfa_offset 4
 759              		@ sp needed
 760 001e 5DF8044B 		ldr	r4, [sp], #4
 761              	.LCFI15:
 762              		.cfi_restore 4
 763              		.cfi_def_cfa_offset 0
 764 0022 7047     		bx	lr
 765              	.LVL53:
 766              	.L55:
 767              	.LCFI16:
 768              		.cfi_restore_state
 790:../Drivers/STM32F7xx_HAL_Driver/Src/stm32f7xx_hal_dac.c ****   }
 769              		.loc 1 790 5 is_stmt 1 view .LVU217
 790:../Drivers/STM32F7xx_HAL_Driver/Src/stm32f7xx_hal_dac.c ****   }
 770              		.loc 1 790 9 is_stmt 0 view .LVU218
 771 0024 0199     		ldr	r1, [sp, #4]
 772              	.LVL54:
 790:../Drivers/STM32F7xx_HAL_Driver/Src/stm32f7xx_hal_dac.c ****   }
ARM GAS  /tmp/ccQRGNkD.s 			page 30


 773              		.loc 1 790 9 view .LVU219
 774 0026 0A44     		add	r2, r2, r1
 775              	.LVL55:
 790:../Drivers/STM32F7xx_HAL_Driver/Src/stm32f7xx_hal_dac.c ****   }
 776              		.loc 1 790 9 view .LVU220
 777 0028 1432     		adds	r2, r2, #20
 778 002a 0192     		str	r2, [sp, #4]
 779 002c F3E7     		b	.L56
 780              		.cfi_endproc
 781              	.LFE150:
 783              		.section	.text.HAL_DAC_ConvCpltCallbackCh1,"ax",%progbits
 784              		.align	1
 785              		.weak	HAL_DAC_ConvCpltCallbackCh1
 786              		.syntax unified
 787              		.thumb
 788              		.thumb_func
 789              		.fpu fpv5-d16
 791              	HAL_DAC_ConvCpltCallbackCh1:
 792              	.LVL56:
 793              	.LFB151:
 800:../Drivers/STM32F7xx_HAL_Driver/Src/stm32f7xx_hal_dac.c **** 
 801:../Drivers/STM32F7xx_HAL_Driver/Src/stm32f7xx_hal_dac.c **** /**
 802:../Drivers/STM32F7xx_HAL_Driver/Src/stm32f7xx_hal_dac.c ****   * @brief  Conversion complete callback in non-blocking mode for Channel1
 803:../Drivers/STM32F7xx_HAL_Driver/Src/stm32f7xx_hal_dac.c ****   * @param  hdac pointer to a DAC_HandleTypeDef structure that contains
 804:../Drivers/STM32F7xx_HAL_Driver/Src/stm32f7xx_hal_dac.c ****   *         the configuration information for the specified DAC.
 805:../Drivers/STM32F7xx_HAL_Driver/Src/stm32f7xx_hal_dac.c ****   * @retval None
 806:../Drivers/STM32F7xx_HAL_Driver/Src/stm32f7xx_hal_dac.c ****   */
 807:../Drivers/STM32F7xx_HAL_Driver/Src/stm32f7xx_hal_dac.c **** __weak void HAL_DAC_ConvCpltCallbackCh1(DAC_HandleTypeDef *hdac)
 808:../Drivers/STM32F7xx_HAL_Driver/Src/stm32f7xx_hal_dac.c **** {
 794              		.loc 1 808 1 is_stmt 1 view -0
 795              		.cfi_startproc
 796              		@ args = 0, pretend = 0, frame = 0
 797              		@ frame_needed = 0, uses_anonymous_args = 0
 798              		@ link register save eliminated.
 809:../Drivers/STM32F7xx_HAL_Driver/Src/stm32f7xx_hal_dac.c ****   /* Prevent unused argument(s) compilation warning */
 810:../Drivers/STM32F7xx_HAL_Driver/Src/stm32f7xx_hal_dac.c ****   UNUSED(hdac);
 799              		.loc 1 810 3 view .LVU222
 811:../Drivers/STM32F7xx_HAL_Driver/Src/stm32f7xx_hal_dac.c **** 
 812:../Drivers/STM32F7xx_HAL_Driver/Src/stm32f7xx_hal_dac.c ****   /* NOTE : This function should not be modified, when the callback is needed,
 813:../Drivers/STM32F7xx_HAL_Driver/Src/stm32f7xx_hal_dac.c ****             the HAL_DAC_ConvCpltCallbackCh1 could be implemented in the user file
 814:../Drivers/STM32F7xx_HAL_Driver/Src/stm32f7xx_hal_dac.c ****    */
 815:../Drivers/STM32F7xx_HAL_Driver/Src/stm32f7xx_hal_dac.c **** }
 800              		.loc 1 815 1 is_stmt 0 view .LVU223
 801 0000 7047     		bx	lr
 802              		.cfi_endproc
 803              	.LFE151:
 805              		.section	.text.DAC_DMAConvCpltCh1,"ax",%progbits
 806              		.align	1
 807              		.global	DAC_DMAConvCpltCh1
 808              		.syntax unified
 809              		.thumb
 810              		.thumb_func
 811              		.fpu fpv5-d16
 813              	DAC_DMAConvCpltCh1:
 814              	.LVL57:
 815              	.LFB159:
 816:../Drivers/STM32F7xx_HAL_Driver/Src/stm32f7xx_hal_dac.c **** 
ARM GAS  /tmp/ccQRGNkD.s 			page 31


 817:../Drivers/STM32F7xx_HAL_Driver/Src/stm32f7xx_hal_dac.c **** /**
 818:../Drivers/STM32F7xx_HAL_Driver/Src/stm32f7xx_hal_dac.c ****   * @brief  Conversion half DMA transfer callback in non-blocking mode for Channel1
 819:../Drivers/STM32F7xx_HAL_Driver/Src/stm32f7xx_hal_dac.c ****   * @param  hdac pointer to a DAC_HandleTypeDef structure that contains
 820:../Drivers/STM32F7xx_HAL_Driver/Src/stm32f7xx_hal_dac.c ****   *         the configuration information for the specified DAC.
 821:../Drivers/STM32F7xx_HAL_Driver/Src/stm32f7xx_hal_dac.c ****   * @retval None
 822:../Drivers/STM32F7xx_HAL_Driver/Src/stm32f7xx_hal_dac.c ****   */
 823:../Drivers/STM32F7xx_HAL_Driver/Src/stm32f7xx_hal_dac.c **** __weak void HAL_DAC_ConvHalfCpltCallbackCh1(DAC_HandleTypeDef *hdac)
 824:../Drivers/STM32F7xx_HAL_Driver/Src/stm32f7xx_hal_dac.c **** {
 825:../Drivers/STM32F7xx_HAL_Driver/Src/stm32f7xx_hal_dac.c ****   /* Prevent unused argument(s) compilation warning */
 826:../Drivers/STM32F7xx_HAL_Driver/Src/stm32f7xx_hal_dac.c ****   UNUSED(hdac);
 827:../Drivers/STM32F7xx_HAL_Driver/Src/stm32f7xx_hal_dac.c **** 
 828:../Drivers/STM32F7xx_HAL_Driver/Src/stm32f7xx_hal_dac.c ****   /* NOTE : This function should not be modified, when the callback is needed,
 829:../Drivers/STM32F7xx_HAL_Driver/Src/stm32f7xx_hal_dac.c ****             the HAL_DAC_ConvHalfCpltCallbackCh1 could be implemented in the user file
 830:../Drivers/STM32F7xx_HAL_Driver/Src/stm32f7xx_hal_dac.c ****    */
 831:../Drivers/STM32F7xx_HAL_Driver/Src/stm32f7xx_hal_dac.c **** }
 832:../Drivers/STM32F7xx_HAL_Driver/Src/stm32f7xx_hal_dac.c **** 
 833:../Drivers/STM32F7xx_HAL_Driver/Src/stm32f7xx_hal_dac.c **** /**
 834:../Drivers/STM32F7xx_HAL_Driver/Src/stm32f7xx_hal_dac.c ****   * @brief  Error DAC callback for Channel1.
 835:../Drivers/STM32F7xx_HAL_Driver/Src/stm32f7xx_hal_dac.c ****   * @param  hdac pointer to a DAC_HandleTypeDef structure that contains
 836:../Drivers/STM32F7xx_HAL_Driver/Src/stm32f7xx_hal_dac.c ****   *         the configuration information for the specified DAC.
 837:../Drivers/STM32F7xx_HAL_Driver/Src/stm32f7xx_hal_dac.c ****   * @retval None
 838:../Drivers/STM32F7xx_HAL_Driver/Src/stm32f7xx_hal_dac.c ****   */
 839:../Drivers/STM32F7xx_HAL_Driver/Src/stm32f7xx_hal_dac.c **** __weak void HAL_DAC_ErrorCallbackCh1(DAC_HandleTypeDef *hdac)
 840:../Drivers/STM32F7xx_HAL_Driver/Src/stm32f7xx_hal_dac.c **** {
 841:../Drivers/STM32F7xx_HAL_Driver/Src/stm32f7xx_hal_dac.c ****   /* Prevent unused argument(s) compilation warning */
 842:../Drivers/STM32F7xx_HAL_Driver/Src/stm32f7xx_hal_dac.c ****   UNUSED(hdac);
 843:../Drivers/STM32F7xx_HAL_Driver/Src/stm32f7xx_hal_dac.c **** 
 844:../Drivers/STM32F7xx_HAL_Driver/Src/stm32f7xx_hal_dac.c ****   /* NOTE : This function should not be modified, when the callback is needed,
 845:../Drivers/STM32F7xx_HAL_Driver/Src/stm32f7xx_hal_dac.c ****             the HAL_DAC_ErrorCallbackCh1 could be implemented in the user file
 846:../Drivers/STM32F7xx_HAL_Driver/Src/stm32f7xx_hal_dac.c ****    */
 847:../Drivers/STM32F7xx_HAL_Driver/Src/stm32f7xx_hal_dac.c **** }
 848:../Drivers/STM32F7xx_HAL_Driver/Src/stm32f7xx_hal_dac.c **** 
 849:../Drivers/STM32F7xx_HAL_Driver/Src/stm32f7xx_hal_dac.c **** /**
 850:../Drivers/STM32F7xx_HAL_Driver/Src/stm32f7xx_hal_dac.c ****   * @brief  DMA underrun DAC callback for channel1.
 851:../Drivers/STM32F7xx_HAL_Driver/Src/stm32f7xx_hal_dac.c ****   * @param  hdac pointer to a DAC_HandleTypeDef structure that contains
 852:../Drivers/STM32F7xx_HAL_Driver/Src/stm32f7xx_hal_dac.c ****   *         the configuration information for the specified DAC.
 853:../Drivers/STM32F7xx_HAL_Driver/Src/stm32f7xx_hal_dac.c ****   * @retval None
 854:../Drivers/STM32F7xx_HAL_Driver/Src/stm32f7xx_hal_dac.c ****   */
 855:../Drivers/STM32F7xx_HAL_Driver/Src/stm32f7xx_hal_dac.c **** __weak void HAL_DAC_DMAUnderrunCallbackCh1(DAC_HandleTypeDef *hdac)
 856:../Drivers/STM32F7xx_HAL_Driver/Src/stm32f7xx_hal_dac.c **** {
 857:../Drivers/STM32F7xx_HAL_Driver/Src/stm32f7xx_hal_dac.c ****   /* Prevent unused argument(s) compilation warning */
 858:../Drivers/STM32F7xx_HAL_Driver/Src/stm32f7xx_hal_dac.c ****   UNUSED(hdac);
 859:../Drivers/STM32F7xx_HAL_Driver/Src/stm32f7xx_hal_dac.c **** 
 860:../Drivers/STM32F7xx_HAL_Driver/Src/stm32f7xx_hal_dac.c ****   /* NOTE : This function should not be modified, when the callback is needed,
 861:../Drivers/STM32F7xx_HAL_Driver/Src/stm32f7xx_hal_dac.c ****             the HAL_DAC_DMAUnderrunCallbackCh1 could be implemented in the user file
 862:../Drivers/STM32F7xx_HAL_Driver/Src/stm32f7xx_hal_dac.c ****    */
 863:../Drivers/STM32F7xx_HAL_Driver/Src/stm32f7xx_hal_dac.c **** }
 864:../Drivers/STM32F7xx_HAL_Driver/Src/stm32f7xx_hal_dac.c **** 
 865:../Drivers/STM32F7xx_HAL_Driver/Src/stm32f7xx_hal_dac.c **** /**
 866:../Drivers/STM32F7xx_HAL_Driver/Src/stm32f7xx_hal_dac.c ****   * @}
 867:../Drivers/STM32F7xx_HAL_Driver/Src/stm32f7xx_hal_dac.c ****   */
 868:../Drivers/STM32F7xx_HAL_Driver/Src/stm32f7xx_hal_dac.c **** 
 869:../Drivers/STM32F7xx_HAL_Driver/Src/stm32f7xx_hal_dac.c **** /** @defgroup DAC_Exported_Functions_Group3 Peripheral Control functions
 870:../Drivers/STM32F7xx_HAL_Driver/Src/stm32f7xx_hal_dac.c ****   *  @brief    Peripheral Control functions
 871:../Drivers/STM32F7xx_HAL_Driver/Src/stm32f7xx_hal_dac.c ****   *
 872:../Drivers/STM32F7xx_HAL_Driver/Src/stm32f7xx_hal_dac.c **** @verbatim
 873:../Drivers/STM32F7xx_HAL_Driver/Src/stm32f7xx_hal_dac.c ****   ==============================================================================
ARM GAS  /tmp/ccQRGNkD.s 			page 32


 874:../Drivers/STM32F7xx_HAL_Driver/Src/stm32f7xx_hal_dac.c ****              ##### Peripheral Control functions #####
 875:../Drivers/STM32F7xx_HAL_Driver/Src/stm32f7xx_hal_dac.c ****   ==============================================================================
 876:../Drivers/STM32F7xx_HAL_Driver/Src/stm32f7xx_hal_dac.c ****     [..]  This section provides functions allowing to:
 877:../Drivers/STM32F7xx_HAL_Driver/Src/stm32f7xx_hal_dac.c ****       (+) Configure channels.
 878:../Drivers/STM32F7xx_HAL_Driver/Src/stm32f7xx_hal_dac.c ****       (+) Set the specified data holding register value for DAC channel.
 879:../Drivers/STM32F7xx_HAL_Driver/Src/stm32f7xx_hal_dac.c **** 
 880:../Drivers/STM32F7xx_HAL_Driver/Src/stm32f7xx_hal_dac.c **** @endverbatim
 881:../Drivers/STM32F7xx_HAL_Driver/Src/stm32f7xx_hal_dac.c ****   * @{
 882:../Drivers/STM32F7xx_HAL_Driver/Src/stm32f7xx_hal_dac.c ****   */
 883:../Drivers/STM32F7xx_HAL_Driver/Src/stm32f7xx_hal_dac.c **** 
 884:../Drivers/STM32F7xx_HAL_Driver/Src/stm32f7xx_hal_dac.c **** /**
 885:../Drivers/STM32F7xx_HAL_Driver/Src/stm32f7xx_hal_dac.c ****   * @brief  Returns the last data output value of the selected DAC channel.
 886:../Drivers/STM32F7xx_HAL_Driver/Src/stm32f7xx_hal_dac.c ****   * @param  hdac pointer to a DAC_HandleTypeDef structure that contains
 887:../Drivers/STM32F7xx_HAL_Driver/Src/stm32f7xx_hal_dac.c ****   *         the configuration information for the specified DAC.
 888:../Drivers/STM32F7xx_HAL_Driver/Src/stm32f7xx_hal_dac.c ****   * @param  Channel The selected DAC channel.
 889:../Drivers/STM32F7xx_HAL_Driver/Src/stm32f7xx_hal_dac.c ****   *          This parameter can be one of the following values:
 890:../Drivers/STM32F7xx_HAL_Driver/Src/stm32f7xx_hal_dac.c ****   *            @arg DAC_CHANNEL_1: DAC Channel1 selected
 891:../Drivers/STM32F7xx_HAL_Driver/Src/stm32f7xx_hal_dac.c ****   *            @arg DAC_CHANNEL_2: DAC Channel2 selected
 892:../Drivers/STM32F7xx_HAL_Driver/Src/stm32f7xx_hal_dac.c ****   * @retval The selected DAC channel data output value.
 893:../Drivers/STM32F7xx_HAL_Driver/Src/stm32f7xx_hal_dac.c ****   */
 894:../Drivers/STM32F7xx_HAL_Driver/Src/stm32f7xx_hal_dac.c **** uint32_t HAL_DAC_GetValue(DAC_HandleTypeDef *hdac, uint32_t Channel)
 895:../Drivers/STM32F7xx_HAL_Driver/Src/stm32f7xx_hal_dac.c **** {
 896:../Drivers/STM32F7xx_HAL_Driver/Src/stm32f7xx_hal_dac.c ****   uint32_t result;
 897:../Drivers/STM32F7xx_HAL_Driver/Src/stm32f7xx_hal_dac.c **** 
 898:../Drivers/STM32F7xx_HAL_Driver/Src/stm32f7xx_hal_dac.c ****   /* Check the parameters */
 899:../Drivers/STM32F7xx_HAL_Driver/Src/stm32f7xx_hal_dac.c ****   assert_param(IS_DAC_CHANNEL(Channel));
 900:../Drivers/STM32F7xx_HAL_Driver/Src/stm32f7xx_hal_dac.c **** 
 901:../Drivers/STM32F7xx_HAL_Driver/Src/stm32f7xx_hal_dac.c ****   if (Channel == DAC_CHANNEL_1)
 902:../Drivers/STM32F7xx_HAL_Driver/Src/stm32f7xx_hal_dac.c ****   {
 903:../Drivers/STM32F7xx_HAL_Driver/Src/stm32f7xx_hal_dac.c ****     result = hdac->Instance->DOR1;
 904:../Drivers/STM32F7xx_HAL_Driver/Src/stm32f7xx_hal_dac.c ****   }
 905:../Drivers/STM32F7xx_HAL_Driver/Src/stm32f7xx_hal_dac.c **** 
 906:../Drivers/STM32F7xx_HAL_Driver/Src/stm32f7xx_hal_dac.c ****   else
 907:../Drivers/STM32F7xx_HAL_Driver/Src/stm32f7xx_hal_dac.c ****   {
 908:../Drivers/STM32F7xx_HAL_Driver/Src/stm32f7xx_hal_dac.c ****     result = hdac->Instance->DOR2;
 909:../Drivers/STM32F7xx_HAL_Driver/Src/stm32f7xx_hal_dac.c ****   }
 910:../Drivers/STM32F7xx_HAL_Driver/Src/stm32f7xx_hal_dac.c **** 
 911:../Drivers/STM32F7xx_HAL_Driver/Src/stm32f7xx_hal_dac.c ****   /* Returns the DAC channel data output register value */
 912:../Drivers/STM32F7xx_HAL_Driver/Src/stm32f7xx_hal_dac.c ****   return result;
 913:../Drivers/STM32F7xx_HAL_Driver/Src/stm32f7xx_hal_dac.c **** }
 914:../Drivers/STM32F7xx_HAL_Driver/Src/stm32f7xx_hal_dac.c **** 
 915:../Drivers/STM32F7xx_HAL_Driver/Src/stm32f7xx_hal_dac.c **** /**
 916:../Drivers/STM32F7xx_HAL_Driver/Src/stm32f7xx_hal_dac.c ****   * @brief  Configures the selected DAC channel.
 917:../Drivers/STM32F7xx_HAL_Driver/Src/stm32f7xx_hal_dac.c ****   * @param  hdac pointer to a DAC_HandleTypeDef structure that contains
 918:../Drivers/STM32F7xx_HAL_Driver/Src/stm32f7xx_hal_dac.c ****   *         the configuration information for the specified DAC.
 919:../Drivers/STM32F7xx_HAL_Driver/Src/stm32f7xx_hal_dac.c ****   * @param  sConfig DAC configuration structure.
 920:../Drivers/STM32F7xx_HAL_Driver/Src/stm32f7xx_hal_dac.c ****   * @param  Channel The selected DAC channel.
 921:../Drivers/STM32F7xx_HAL_Driver/Src/stm32f7xx_hal_dac.c ****   *          This parameter can be one of the following values:
 922:../Drivers/STM32F7xx_HAL_Driver/Src/stm32f7xx_hal_dac.c ****   *            @arg DAC_CHANNEL_1: DAC Channel1 selected
 923:../Drivers/STM32F7xx_HAL_Driver/Src/stm32f7xx_hal_dac.c ****   *            @arg DAC_CHANNEL_2: DAC Channel2 selected
 924:../Drivers/STM32F7xx_HAL_Driver/Src/stm32f7xx_hal_dac.c ****   * @retval HAL status
 925:../Drivers/STM32F7xx_HAL_Driver/Src/stm32f7xx_hal_dac.c ****   */
 926:../Drivers/STM32F7xx_HAL_Driver/Src/stm32f7xx_hal_dac.c **** HAL_StatusTypeDef HAL_DAC_ConfigChannel(DAC_HandleTypeDef *hdac, DAC_ChannelConfTypeDef *sConfig, u
 927:../Drivers/STM32F7xx_HAL_Driver/Src/stm32f7xx_hal_dac.c **** {
 928:../Drivers/STM32F7xx_HAL_Driver/Src/stm32f7xx_hal_dac.c ****   uint32_t tmpreg1;
 929:../Drivers/STM32F7xx_HAL_Driver/Src/stm32f7xx_hal_dac.c ****   uint32_t tmpreg2;
 930:../Drivers/STM32F7xx_HAL_Driver/Src/stm32f7xx_hal_dac.c **** 
ARM GAS  /tmp/ccQRGNkD.s 			page 33


 931:../Drivers/STM32F7xx_HAL_Driver/Src/stm32f7xx_hal_dac.c ****   /* Check the DAC parameters */
 932:../Drivers/STM32F7xx_HAL_Driver/Src/stm32f7xx_hal_dac.c ****   assert_param(IS_DAC_TRIGGER(sConfig->DAC_Trigger));
 933:../Drivers/STM32F7xx_HAL_Driver/Src/stm32f7xx_hal_dac.c ****   assert_param(IS_DAC_OUTPUT_BUFFER_STATE(sConfig->DAC_OutputBuffer));
 934:../Drivers/STM32F7xx_HAL_Driver/Src/stm32f7xx_hal_dac.c ****   assert_param(IS_DAC_CHANNEL(Channel));
 935:../Drivers/STM32F7xx_HAL_Driver/Src/stm32f7xx_hal_dac.c **** 
 936:../Drivers/STM32F7xx_HAL_Driver/Src/stm32f7xx_hal_dac.c ****   /* Process locked */
 937:../Drivers/STM32F7xx_HAL_Driver/Src/stm32f7xx_hal_dac.c ****   __HAL_LOCK(hdac);
 938:../Drivers/STM32F7xx_HAL_Driver/Src/stm32f7xx_hal_dac.c **** 
 939:../Drivers/STM32F7xx_HAL_Driver/Src/stm32f7xx_hal_dac.c ****   /* Change DAC state */
 940:../Drivers/STM32F7xx_HAL_Driver/Src/stm32f7xx_hal_dac.c ****   hdac->State = HAL_DAC_STATE_BUSY;
 941:../Drivers/STM32F7xx_HAL_Driver/Src/stm32f7xx_hal_dac.c **** 
 942:../Drivers/STM32F7xx_HAL_Driver/Src/stm32f7xx_hal_dac.c ****   /* Get the DAC CR value */
 943:../Drivers/STM32F7xx_HAL_Driver/Src/stm32f7xx_hal_dac.c ****   tmpreg1 = hdac->Instance->CR;
 944:../Drivers/STM32F7xx_HAL_Driver/Src/stm32f7xx_hal_dac.c ****   /* Clear BOFFx, TENx, TSELx, WAVEx and MAMPx bits */
 945:../Drivers/STM32F7xx_HAL_Driver/Src/stm32f7xx_hal_dac.c ****   tmpreg1 &= ~(((uint32_t)(DAC_CR_MAMP1 | DAC_CR_WAVE1 | DAC_CR_TSEL1 | DAC_CR_TEN1 | DAC_CR_BOFF1)
 946:../Drivers/STM32F7xx_HAL_Driver/Src/stm32f7xx_hal_dac.c ****   /* Configure for the selected DAC channel: buffer output, trigger */
 947:../Drivers/STM32F7xx_HAL_Driver/Src/stm32f7xx_hal_dac.c ****   /* Set TSELx and TENx bits according to DAC_Trigger value */
 948:../Drivers/STM32F7xx_HAL_Driver/Src/stm32f7xx_hal_dac.c ****   /* Set BOFFx bit according to DAC_OutputBuffer value */
 949:../Drivers/STM32F7xx_HAL_Driver/Src/stm32f7xx_hal_dac.c ****   tmpreg2 = (sConfig->DAC_Trigger | sConfig->DAC_OutputBuffer);
 950:../Drivers/STM32F7xx_HAL_Driver/Src/stm32f7xx_hal_dac.c ****   /* Calculate CR register value depending on DAC_Channel */
 951:../Drivers/STM32F7xx_HAL_Driver/Src/stm32f7xx_hal_dac.c ****   tmpreg1 |= tmpreg2 << (Channel & 0x10UL);
 952:../Drivers/STM32F7xx_HAL_Driver/Src/stm32f7xx_hal_dac.c ****   /* Write to DAC CR */
 953:../Drivers/STM32F7xx_HAL_Driver/Src/stm32f7xx_hal_dac.c ****   hdac->Instance->CR = tmpreg1;
 954:../Drivers/STM32F7xx_HAL_Driver/Src/stm32f7xx_hal_dac.c ****   /* Disable wave generation */
 955:../Drivers/STM32F7xx_HAL_Driver/Src/stm32f7xx_hal_dac.c ****   CLEAR_BIT(hdac->Instance->CR, (DAC_CR_WAVE1 << (Channel & 0x10UL)));
 956:../Drivers/STM32F7xx_HAL_Driver/Src/stm32f7xx_hal_dac.c **** 
 957:../Drivers/STM32F7xx_HAL_Driver/Src/stm32f7xx_hal_dac.c ****   /* Change DAC state */
 958:../Drivers/STM32F7xx_HAL_Driver/Src/stm32f7xx_hal_dac.c ****   hdac->State = HAL_DAC_STATE_READY;
 959:../Drivers/STM32F7xx_HAL_Driver/Src/stm32f7xx_hal_dac.c **** 
 960:../Drivers/STM32F7xx_HAL_Driver/Src/stm32f7xx_hal_dac.c ****   /* Process unlocked */
 961:../Drivers/STM32F7xx_HAL_Driver/Src/stm32f7xx_hal_dac.c ****   __HAL_UNLOCK(hdac);
 962:../Drivers/STM32F7xx_HAL_Driver/Src/stm32f7xx_hal_dac.c **** 
 963:../Drivers/STM32F7xx_HAL_Driver/Src/stm32f7xx_hal_dac.c ****   /* Return function status */
 964:../Drivers/STM32F7xx_HAL_Driver/Src/stm32f7xx_hal_dac.c ****   return HAL_OK;
 965:../Drivers/STM32F7xx_HAL_Driver/Src/stm32f7xx_hal_dac.c **** }
 966:../Drivers/STM32F7xx_HAL_Driver/Src/stm32f7xx_hal_dac.c **** 
 967:../Drivers/STM32F7xx_HAL_Driver/Src/stm32f7xx_hal_dac.c **** /**
 968:../Drivers/STM32F7xx_HAL_Driver/Src/stm32f7xx_hal_dac.c ****   * @}
 969:../Drivers/STM32F7xx_HAL_Driver/Src/stm32f7xx_hal_dac.c ****   */
 970:../Drivers/STM32F7xx_HAL_Driver/Src/stm32f7xx_hal_dac.c **** 
 971:../Drivers/STM32F7xx_HAL_Driver/Src/stm32f7xx_hal_dac.c **** /** @defgroup DAC_Exported_Functions_Group4 Peripheral State and Errors functions
 972:../Drivers/STM32F7xx_HAL_Driver/Src/stm32f7xx_hal_dac.c ****   *  @brief   Peripheral State and Errors functions
 973:../Drivers/STM32F7xx_HAL_Driver/Src/stm32f7xx_hal_dac.c ****   *
 974:../Drivers/STM32F7xx_HAL_Driver/Src/stm32f7xx_hal_dac.c **** @verbatim
 975:../Drivers/STM32F7xx_HAL_Driver/Src/stm32f7xx_hal_dac.c ****   ==============================================================================
 976:../Drivers/STM32F7xx_HAL_Driver/Src/stm32f7xx_hal_dac.c ****             ##### Peripheral State and Errors functions #####
 977:../Drivers/STM32F7xx_HAL_Driver/Src/stm32f7xx_hal_dac.c ****   ==============================================================================
 978:../Drivers/STM32F7xx_HAL_Driver/Src/stm32f7xx_hal_dac.c ****     [..]
 979:../Drivers/STM32F7xx_HAL_Driver/Src/stm32f7xx_hal_dac.c ****     This subsection provides functions allowing to
 980:../Drivers/STM32F7xx_HAL_Driver/Src/stm32f7xx_hal_dac.c ****       (+) Check the DAC state.
 981:../Drivers/STM32F7xx_HAL_Driver/Src/stm32f7xx_hal_dac.c ****       (+) Check the DAC Errors.
 982:../Drivers/STM32F7xx_HAL_Driver/Src/stm32f7xx_hal_dac.c **** 
 983:../Drivers/STM32F7xx_HAL_Driver/Src/stm32f7xx_hal_dac.c **** @endverbatim
 984:../Drivers/STM32F7xx_HAL_Driver/Src/stm32f7xx_hal_dac.c ****   * @{
 985:../Drivers/STM32F7xx_HAL_Driver/Src/stm32f7xx_hal_dac.c ****   */
 986:../Drivers/STM32F7xx_HAL_Driver/Src/stm32f7xx_hal_dac.c **** 
 987:../Drivers/STM32F7xx_HAL_Driver/Src/stm32f7xx_hal_dac.c **** /**
ARM GAS  /tmp/ccQRGNkD.s 			page 34


 988:../Drivers/STM32F7xx_HAL_Driver/Src/stm32f7xx_hal_dac.c ****   * @brief  return the DAC handle state
 989:../Drivers/STM32F7xx_HAL_Driver/Src/stm32f7xx_hal_dac.c ****   * @param  hdac pointer to a DAC_HandleTypeDef structure that contains
 990:../Drivers/STM32F7xx_HAL_Driver/Src/stm32f7xx_hal_dac.c ****   *         the configuration information for the specified DAC.
 991:../Drivers/STM32F7xx_HAL_Driver/Src/stm32f7xx_hal_dac.c ****   * @retval HAL state
 992:../Drivers/STM32F7xx_HAL_Driver/Src/stm32f7xx_hal_dac.c ****   */
 993:../Drivers/STM32F7xx_HAL_Driver/Src/stm32f7xx_hal_dac.c **** HAL_DAC_StateTypeDef HAL_DAC_GetState(DAC_HandleTypeDef *hdac)
 994:../Drivers/STM32F7xx_HAL_Driver/Src/stm32f7xx_hal_dac.c **** {
 995:../Drivers/STM32F7xx_HAL_Driver/Src/stm32f7xx_hal_dac.c ****   /* Return DAC handle state */
 996:../Drivers/STM32F7xx_HAL_Driver/Src/stm32f7xx_hal_dac.c ****   return hdac->State;
 997:../Drivers/STM32F7xx_HAL_Driver/Src/stm32f7xx_hal_dac.c **** }
 998:../Drivers/STM32F7xx_HAL_Driver/Src/stm32f7xx_hal_dac.c **** 
 999:../Drivers/STM32F7xx_HAL_Driver/Src/stm32f7xx_hal_dac.c **** 
1000:../Drivers/STM32F7xx_HAL_Driver/Src/stm32f7xx_hal_dac.c **** /**
1001:../Drivers/STM32F7xx_HAL_Driver/Src/stm32f7xx_hal_dac.c ****   * @brief  Return the DAC error code
1002:../Drivers/STM32F7xx_HAL_Driver/Src/stm32f7xx_hal_dac.c ****   * @param  hdac pointer to a DAC_HandleTypeDef structure that contains
1003:../Drivers/STM32F7xx_HAL_Driver/Src/stm32f7xx_hal_dac.c ****   *         the configuration information for the specified DAC.
1004:../Drivers/STM32F7xx_HAL_Driver/Src/stm32f7xx_hal_dac.c ****   * @retval DAC Error Code
1005:../Drivers/STM32F7xx_HAL_Driver/Src/stm32f7xx_hal_dac.c ****   */
1006:../Drivers/STM32F7xx_HAL_Driver/Src/stm32f7xx_hal_dac.c **** uint32_t HAL_DAC_GetError(DAC_HandleTypeDef *hdac)
1007:../Drivers/STM32F7xx_HAL_Driver/Src/stm32f7xx_hal_dac.c **** {
1008:../Drivers/STM32F7xx_HAL_Driver/Src/stm32f7xx_hal_dac.c ****   return hdac->ErrorCode;
1009:../Drivers/STM32F7xx_HAL_Driver/Src/stm32f7xx_hal_dac.c **** }
1010:../Drivers/STM32F7xx_HAL_Driver/Src/stm32f7xx_hal_dac.c **** 
1011:../Drivers/STM32F7xx_HAL_Driver/Src/stm32f7xx_hal_dac.c **** /**
1012:../Drivers/STM32F7xx_HAL_Driver/Src/stm32f7xx_hal_dac.c ****   * @}
1013:../Drivers/STM32F7xx_HAL_Driver/Src/stm32f7xx_hal_dac.c ****   */
1014:../Drivers/STM32F7xx_HAL_Driver/Src/stm32f7xx_hal_dac.c **** 
1015:../Drivers/STM32F7xx_HAL_Driver/Src/stm32f7xx_hal_dac.c **** /**
1016:../Drivers/STM32F7xx_HAL_Driver/Src/stm32f7xx_hal_dac.c ****   * @}
1017:../Drivers/STM32F7xx_HAL_Driver/Src/stm32f7xx_hal_dac.c ****   */
1018:../Drivers/STM32F7xx_HAL_Driver/Src/stm32f7xx_hal_dac.c **** 
1019:../Drivers/STM32F7xx_HAL_Driver/Src/stm32f7xx_hal_dac.c **** /** @addtogroup DAC_Exported_Functions
1020:../Drivers/STM32F7xx_HAL_Driver/Src/stm32f7xx_hal_dac.c ****   * @{
1021:../Drivers/STM32F7xx_HAL_Driver/Src/stm32f7xx_hal_dac.c ****   */
1022:../Drivers/STM32F7xx_HAL_Driver/Src/stm32f7xx_hal_dac.c **** 
1023:../Drivers/STM32F7xx_HAL_Driver/Src/stm32f7xx_hal_dac.c **** /** @addtogroup DAC_Exported_Functions_Group1
1024:../Drivers/STM32F7xx_HAL_Driver/Src/stm32f7xx_hal_dac.c ****   * @{
1025:../Drivers/STM32F7xx_HAL_Driver/Src/stm32f7xx_hal_dac.c ****   */
1026:../Drivers/STM32F7xx_HAL_Driver/Src/stm32f7xx_hal_dac.c **** #if (USE_HAL_DAC_REGISTER_CALLBACKS == 1)
1027:../Drivers/STM32F7xx_HAL_Driver/Src/stm32f7xx_hal_dac.c **** /**
1028:../Drivers/STM32F7xx_HAL_Driver/Src/stm32f7xx_hal_dac.c ****   * @brief  Register a User DAC Callback
1029:../Drivers/STM32F7xx_HAL_Driver/Src/stm32f7xx_hal_dac.c ****   *         To be used instead of the weak (surcharged) predefined callback
1030:../Drivers/STM32F7xx_HAL_Driver/Src/stm32f7xx_hal_dac.c ****   * @param  hdac DAC handle
1031:../Drivers/STM32F7xx_HAL_Driver/Src/stm32f7xx_hal_dac.c ****   * @param  CallbackID ID of the callback to be registered
1032:../Drivers/STM32F7xx_HAL_Driver/Src/stm32f7xx_hal_dac.c ****   *         This parameter can be one of the following values:
1033:../Drivers/STM32F7xx_HAL_Driver/Src/stm32f7xx_hal_dac.c ****   *          @arg @ref HAL_DAC_ERROR_INVALID_CALLBACK   DAC Error Callback ID
1034:../Drivers/STM32F7xx_HAL_Driver/Src/stm32f7xx_hal_dac.c ****   *          @arg @ref HAL_DAC_CH1_COMPLETE_CB_ID       DAC CH1 Complete Callback ID
1035:../Drivers/STM32F7xx_HAL_Driver/Src/stm32f7xx_hal_dac.c ****   *          @arg @ref HAL_DAC_CH1_HALF_COMPLETE_CB_ID  DAC CH1 Half Complete Callback ID
1036:../Drivers/STM32F7xx_HAL_Driver/Src/stm32f7xx_hal_dac.c ****   *          @arg @ref HAL_DAC_CH1_ERROR_ID             DAC CH1 Error Callback ID
1037:../Drivers/STM32F7xx_HAL_Driver/Src/stm32f7xx_hal_dac.c ****   *          @arg @ref HAL_DAC_CH1_UNDERRUN_CB_ID       DAC CH1 UnderRun Callback ID
1038:../Drivers/STM32F7xx_HAL_Driver/Src/stm32f7xx_hal_dac.c ****   *          @arg @ref HAL_DAC_CH2_COMPLETE_CB_ID       DAC CH2 Complete Callback ID
1039:../Drivers/STM32F7xx_HAL_Driver/Src/stm32f7xx_hal_dac.c ****   *          @arg @ref HAL_DAC_CH2_HALF_COMPLETE_CB_ID  DAC CH2 Half Complete Callback ID
1040:../Drivers/STM32F7xx_HAL_Driver/Src/stm32f7xx_hal_dac.c ****   *          @arg @ref HAL_DAC_CH2_ERROR_ID             DAC CH2 Error Callback ID
1041:../Drivers/STM32F7xx_HAL_Driver/Src/stm32f7xx_hal_dac.c ****   *          @arg @ref HAL_DAC_CH2_UNDERRUN_CB_ID       DAC CH2 UnderRun Callback ID
1042:../Drivers/STM32F7xx_HAL_Driver/Src/stm32f7xx_hal_dac.c ****   *          @arg @ref HAL_DAC_MSPINIT_CB_ID            DAC MSP Init Callback ID
1043:../Drivers/STM32F7xx_HAL_Driver/Src/stm32f7xx_hal_dac.c ****   *          @arg @ref HAL_DAC_MSPDEINIT_CB_ID          DAC MSP DeInit Callback ID
1044:../Drivers/STM32F7xx_HAL_Driver/Src/stm32f7xx_hal_dac.c ****   *
ARM GAS  /tmp/ccQRGNkD.s 			page 35


1045:../Drivers/STM32F7xx_HAL_Driver/Src/stm32f7xx_hal_dac.c ****   * @param  pCallback pointer to the Callback function
1046:../Drivers/STM32F7xx_HAL_Driver/Src/stm32f7xx_hal_dac.c ****   * @retval status
1047:../Drivers/STM32F7xx_HAL_Driver/Src/stm32f7xx_hal_dac.c ****   */
1048:../Drivers/STM32F7xx_HAL_Driver/Src/stm32f7xx_hal_dac.c **** HAL_StatusTypeDef HAL_DAC_RegisterCallback(DAC_HandleTypeDef *hdac, HAL_DAC_CallbackIDTypeDef Callb
1049:../Drivers/STM32F7xx_HAL_Driver/Src/stm32f7xx_hal_dac.c ****                                            pDAC_CallbackTypeDef pCallback)
1050:../Drivers/STM32F7xx_HAL_Driver/Src/stm32f7xx_hal_dac.c **** {
1051:../Drivers/STM32F7xx_HAL_Driver/Src/stm32f7xx_hal_dac.c ****   HAL_StatusTypeDef status = HAL_OK;
1052:../Drivers/STM32F7xx_HAL_Driver/Src/stm32f7xx_hal_dac.c **** 
1053:../Drivers/STM32F7xx_HAL_Driver/Src/stm32f7xx_hal_dac.c ****   if (pCallback == NULL)
1054:../Drivers/STM32F7xx_HAL_Driver/Src/stm32f7xx_hal_dac.c ****   {
1055:../Drivers/STM32F7xx_HAL_Driver/Src/stm32f7xx_hal_dac.c ****     /* Update the error code */
1056:../Drivers/STM32F7xx_HAL_Driver/Src/stm32f7xx_hal_dac.c ****     hdac->ErrorCode |= HAL_DAC_ERROR_INVALID_CALLBACK;
1057:../Drivers/STM32F7xx_HAL_Driver/Src/stm32f7xx_hal_dac.c ****     return HAL_ERROR;
1058:../Drivers/STM32F7xx_HAL_Driver/Src/stm32f7xx_hal_dac.c ****   }
1059:../Drivers/STM32F7xx_HAL_Driver/Src/stm32f7xx_hal_dac.c **** 
1060:../Drivers/STM32F7xx_HAL_Driver/Src/stm32f7xx_hal_dac.c ****   /* Process locked */
1061:../Drivers/STM32F7xx_HAL_Driver/Src/stm32f7xx_hal_dac.c ****   __HAL_LOCK(hdac);
1062:../Drivers/STM32F7xx_HAL_Driver/Src/stm32f7xx_hal_dac.c **** 
1063:../Drivers/STM32F7xx_HAL_Driver/Src/stm32f7xx_hal_dac.c ****   if (hdac->State == HAL_DAC_STATE_READY)
1064:../Drivers/STM32F7xx_HAL_Driver/Src/stm32f7xx_hal_dac.c ****   {
1065:../Drivers/STM32F7xx_HAL_Driver/Src/stm32f7xx_hal_dac.c ****     switch (CallbackID)
1066:../Drivers/STM32F7xx_HAL_Driver/Src/stm32f7xx_hal_dac.c ****     {
1067:../Drivers/STM32F7xx_HAL_Driver/Src/stm32f7xx_hal_dac.c ****       case HAL_DAC_CH1_COMPLETE_CB_ID :
1068:../Drivers/STM32F7xx_HAL_Driver/Src/stm32f7xx_hal_dac.c ****         hdac->ConvCpltCallbackCh1 = pCallback;
1069:../Drivers/STM32F7xx_HAL_Driver/Src/stm32f7xx_hal_dac.c ****         break;
1070:../Drivers/STM32F7xx_HAL_Driver/Src/stm32f7xx_hal_dac.c ****       case HAL_DAC_CH1_HALF_COMPLETE_CB_ID :
1071:../Drivers/STM32F7xx_HAL_Driver/Src/stm32f7xx_hal_dac.c ****         hdac->ConvHalfCpltCallbackCh1 = pCallback;
1072:../Drivers/STM32F7xx_HAL_Driver/Src/stm32f7xx_hal_dac.c ****         break;
1073:../Drivers/STM32F7xx_HAL_Driver/Src/stm32f7xx_hal_dac.c ****       case HAL_DAC_CH1_ERROR_ID :
1074:../Drivers/STM32F7xx_HAL_Driver/Src/stm32f7xx_hal_dac.c ****         hdac->ErrorCallbackCh1 = pCallback;
1075:../Drivers/STM32F7xx_HAL_Driver/Src/stm32f7xx_hal_dac.c ****         break;
1076:../Drivers/STM32F7xx_HAL_Driver/Src/stm32f7xx_hal_dac.c ****       case HAL_DAC_CH1_UNDERRUN_CB_ID :
1077:../Drivers/STM32F7xx_HAL_Driver/Src/stm32f7xx_hal_dac.c ****         hdac->DMAUnderrunCallbackCh1 = pCallback;
1078:../Drivers/STM32F7xx_HAL_Driver/Src/stm32f7xx_hal_dac.c ****         break;
1079:../Drivers/STM32F7xx_HAL_Driver/Src/stm32f7xx_hal_dac.c **** 
1080:../Drivers/STM32F7xx_HAL_Driver/Src/stm32f7xx_hal_dac.c ****       case HAL_DAC_CH2_COMPLETE_CB_ID :
1081:../Drivers/STM32F7xx_HAL_Driver/Src/stm32f7xx_hal_dac.c ****         hdac->ConvCpltCallbackCh2 = pCallback;
1082:../Drivers/STM32F7xx_HAL_Driver/Src/stm32f7xx_hal_dac.c ****         break;
1083:../Drivers/STM32F7xx_HAL_Driver/Src/stm32f7xx_hal_dac.c ****       case HAL_DAC_CH2_HALF_COMPLETE_CB_ID :
1084:../Drivers/STM32F7xx_HAL_Driver/Src/stm32f7xx_hal_dac.c ****         hdac->ConvHalfCpltCallbackCh2 = pCallback;
1085:../Drivers/STM32F7xx_HAL_Driver/Src/stm32f7xx_hal_dac.c ****         break;
1086:../Drivers/STM32F7xx_HAL_Driver/Src/stm32f7xx_hal_dac.c ****       case HAL_DAC_CH2_ERROR_ID :
1087:../Drivers/STM32F7xx_HAL_Driver/Src/stm32f7xx_hal_dac.c ****         hdac->ErrorCallbackCh2 = pCallback;
1088:../Drivers/STM32F7xx_HAL_Driver/Src/stm32f7xx_hal_dac.c ****         break;
1089:../Drivers/STM32F7xx_HAL_Driver/Src/stm32f7xx_hal_dac.c ****       case HAL_DAC_CH2_UNDERRUN_CB_ID :
1090:../Drivers/STM32F7xx_HAL_Driver/Src/stm32f7xx_hal_dac.c ****         hdac->DMAUnderrunCallbackCh2 = pCallback;
1091:../Drivers/STM32F7xx_HAL_Driver/Src/stm32f7xx_hal_dac.c ****         break;
1092:../Drivers/STM32F7xx_HAL_Driver/Src/stm32f7xx_hal_dac.c **** 
1093:../Drivers/STM32F7xx_HAL_Driver/Src/stm32f7xx_hal_dac.c ****       case HAL_DAC_MSPINIT_CB_ID :
1094:../Drivers/STM32F7xx_HAL_Driver/Src/stm32f7xx_hal_dac.c ****         hdac->MspInitCallback = pCallback;
1095:../Drivers/STM32F7xx_HAL_Driver/Src/stm32f7xx_hal_dac.c ****         break;
1096:../Drivers/STM32F7xx_HAL_Driver/Src/stm32f7xx_hal_dac.c ****       case HAL_DAC_MSPDEINIT_CB_ID :
1097:../Drivers/STM32F7xx_HAL_Driver/Src/stm32f7xx_hal_dac.c ****         hdac->MspDeInitCallback = pCallback;
1098:../Drivers/STM32F7xx_HAL_Driver/Src/stm32f7xx_hal_dac.c ****         break;
1099:../Drivers/STM32F7xx_HAL_Driver/Src/stm32f7xx_hal_dac.c ****       default :
1100:../Drivers/STM32F7xx_HAL_Driver/Src/stm32f7xx_hal_dac.c ****         /* Update the error code */
1101:../Drivers/STM32F7xx_HAL_Driver/Src/stm32f7xx_hal_dac.c ****         hdac->ErrorCode |= HAL_DAC_ERROR_INVALID_CALLBACK;
ARM GAS  /tmp/ccQRGNkD.s 			page 36


1102:../Drivers/STM32F7xx_HAL_Driver/Src/stm32f7xx_hal_dac.c ****         /* update return status */
1103:../Drivers/STM32F7xx_HAL_Driver/Src/stm32f7xx_hal_dac.c ****         status =  HAL_ERROR;
1104:../Drivers/STM32F7xx_HAL_Driver/Src/stm32f7xx_hal_dac.c ****         break;
1105:../Drivers/STM32F7xx_HAL_Driver/Src/stm32f7xx_hal_dac.c ****     }
1106:../Drivers/STM32F7xx_HAL_Driver/Src/stm32f7xx_hal_dac.c ****   }
1107:../Drivers/STM32F7xx_HAL_Driver/Src/stm32f7xx_hal_dac.c ****   else if (hdac->State == HAL_DAC_STATE_RESET)
1108:../Drivers/STM32F7xx_HAL_Driver/Src/stm32f7xx_hal_dac.c ****   {
1109:../Drivers/STM32F7xx_HAL_Driver/Src/stm32f7xx_hal_dac.c ****     switch (CallbackID)
1110:../Drivers/STM32F7xx_HAL_Driver/Src/stm32f7xx_hal_dac.c ****     {
1111:../Drivers/STM32F7xx_HAL_Driver/Src/stm32f7xx_hal_dac.c ****       case HAL_DAC_MSPINIT_CB_ID :
1112:../Drivers/STM32F7xx_HAL_Driver/Src/stm32f7xx_hal_dac.c ****         hdac->MspInitCallback = pCallback;
1113:../Drivers/STM32F7xx_HAL_Driver/Src/stm32f7xx_hal_dac.c ****         break;
1114:../Drivers/STM32F7xx_HAL_Driver/Src/stm32f7xx_hal_dac.c ****       case HAL_DAC_MSPDEINIT_CB_ID :
1115:../Drivers/STM32F7xx_HAL_Driver/Src/stm32f7xx_hal_dac.c ****         hdac->MspDeInitCallback = pCallback;
1116:../Drivers/STM32F7xx_HAL_Driver/Src/stm32f7xx_hal_dac.c ****         break;
1117:../Drivers/STM32F7xx_HAL_Driver/Src/stm32f7xx_hal_dac.c ****       default :
1118:../Drivers/STM32F7xx_HAL_Driver/Src/stm32f7xx_hal_dac.c ****         /* Update the error code */
1119:../Drivers/STM32F7xx_HAL_Driver/Src/stm32f7xx_hal_dac.c ****         hdac->ErrorCode |= HAL_DAC_ERROR_INVALID_CALLBACK;
1120:../Drivers/STM32F7xx_HAL_Driver/Src/stm32f7xx_hal_dac.c ****         /* update return status */
1121:../Drivers/STM32F7xx_HAL_Driver/Src/stm32f7xx_hal_dac.c ****         status =  HAL_ERROR;
1122:../Drivers/STM32F7xx_HAL_Driver/Src/stm32f7xx_hal_dac.c ****         break;
1123:../Drivers/STM32F7xx_HAL_Driver/Src/stm32f7xx_hal_dac.c ****     }
1124:../Drivers/STM32F7xx_HAL_Driver/Src/stm32f7xx_hal_dac.c ****   }
1125:../Drivers/STM32F7xx_HAL_Driver/Src/stm32f7xx_hal_dac.c ****   else
1126:../Drivers/STM32F7xx_HAL_Driver/Src/stm32f7xx_hal_dac.c ****   {
1127:../Drivers/STM32F7xx_HAL_Driver/Src/stm32f7xx_hal_dac.c ****     /* Update the error code */
1128:../Drivers/STM32F7xx_HAL_Driver/Src/stm32f7xx_hal_dac.c ****     hdac->ErrorCode |= HAL_DAC_ERROR_INVALID_CALLBACK;
1129:../Drivers/STM32F7xx_HAL_Driver/Src/stm32f7xx_hal_dac.c ****     /* update return status */
1130:../Drivers/STM32F7xx_HAL_Driver/Src/stm32f7xx_hal_dac.c ****     status =  HAL_ERROR;
1131:../Drivers/STM32F7xx_HAL_Driver/Src/stm32f7xx_hal_dac.c ****   }
1132:../Drivers/STM32F7xx_HAL_Driver/Src/stm32f7xx_hal_dac.c **** 
1133:../Drivers/STM32F7xx_HAL_Driver/Src/stm32f7xx_hal_dac.c ****   /* Release Lock */
1134:../Drivers/STM32F7xx_HAL_Driver/Src/stm32f7xx_hal_dac.c ****   __HAL_UNLOCK(hdac);
1135:../Drivers/STM32F7xx_HAL_Driver/Src/stm32f7xx_hal_dac.c ****   return status;
1136:../Drivers/STM32F7xx_HAL_Driver/Src/stm32f7xx_hal_dac.c **** }
1137:../Drivers/STM32F7xx_HAL_Driver/Src/stm32f7xx_hal_dac.c **** 
1138:../Drivers/STM32F7xx_HAL_Driver/Src/stm32f7xx_hal_dac.c **** /**
1139:../Drivers/STM32F7xx_HAL_Driver/Src/stm32f7xx_hal_dac.c ****   * @brief  Unregister a User DAC Callback
1140:../Drivers/STM32F7xx_HAL_Driver/Src/stm32f7xx_hal_dac.c ****   *         DAC Callback is redirected to the weak (surcharged) predefined callback
1141:../Drivers/STM32F7xx_HAL_Driver/Src/stm32f7xx_hal_dac.c ****   * @param  hdac DAC handle
1142:../Drivers/STM32F7xx_HAL_Driver/Src/stm32f7xx_hal_dac.c ****   * @param  CallbackID ID of the callback to be unregistered
1143:../Drivers/STM32F7xx_HAL_Driver/Src/stm32f7xx_hal_dac.c ****   *         This parameter can be one of the following values:
1144:../Drivers/STM32F7xx_HAL_Driver/Src/stm32f7xx_hal_dac.c ****   *          @arg @ref HAL_DAC_CH1_COMPLETE_CB_ID          DAC CH1 transfer Complete Callback ID
1145:../Drivers/STM32F7xx_HAL_Driver/Src/stm32f7xx_hal_dac.c ****   *          @arg @ref HAL_DAC_CH1_HALF_COMPLETE_CB_ID     DAC CH1 Half Complete Callback ID
1146:../Drivers/STM32F7xx_HAL_Driver/Src/stm32f7xx_hal_dac.c ****   *          @arg @ref HAL_DAC_CH1_ERROR_ID                DAC CH1 Error Callback ID
1147:../Drivers/STM32F7xx_HAL_Driver/Src/stm32f7xx_hal_dac.c ****   *          @arg @ref HAL_DAC_CH1_UNDERRUN_CB_ID          DAC CH1 UnderRun Callback ID
1148:../Drivers/STM32F7xx_HAL_Driver/Src/stm32f7xx_hal_dac.c ****   *          @arg @ref HAL_DAC_CH2_COMPLETE_CB_ID          DAC CH2 Complete Callback ID
1149:../Drivers/STM32F7xx_HAL_Driver/Src/stm32f7xx_hal_dac.c ****   *          @arg @ref HAL_DAC_CH2_HALF_COMPLETE_CB_ID     DAC CH2 Half Complete Callback ID
1150:../Drivers/STM32F7xx_HAL_Driver/Src/stm32f7xx_hal_dac.c ****   *          @arg @ref HAL_DAC_CH2_ERROR_ID                DAC CH2 Error Callback ID
1151:../Drivers/STM32F7xx_HAL_Driver/Src/stm32f7xx_hal_dac.c ****   *          @arg @ref HAL_DAC_CH2_UNDERRUN_CB_ID          DAC CH2 UnderRun Callback ID
1152:../Drivers/STM32F7xx_HAL_Driver/Src/stm32f7xx_hal_dac.c ****   *          @arg @ref HAL_DAC_MSPINIT_CB_ID               DAC MSP Init Callback ID
1153:../Drivers/STM32F7xx_HAL_Driver/Src/stm32f7xx_hal_dac.c ****   *          @arg @ref HAL_DAC_MSPDEINIT_CB_ID             DAC MSP DeInit Callback ID
1154:../Drivers/STM32F7xx_HAL_Driver/Src/stm32f7xx_hal_dac.c ****   *          @arg @ref HAL_DAC_ALL_CB_ID                   DAC All callbacks
1155:../Drivers/STM32F7xx_HAL_Driver/Src/stm32f7xx_hal_dac.c ****   * @retval status
1156:../Drivers/STM32F7xx_HAL_Driver/Src/stm32f7xx_hal_dac.c ****   */
1157:../Drivers/STM32F7xx_HAL_Driver/Src/stm32f7xx_hal_dac.c **** HAL_StatusTypeDef HAL_DAC_UnRegisterCallback(DAC_HandleTypeDef *hdac, HAL_DAC_CallbackIDTypeDef Cal
1158:../Drivers/STM32F7xx_HAL_Driver/Src/stm32f7xx_hal_dac.c **** {
ARM GAS  /tmp/ccQRGNkD.s 			page 37


1159:../Drivers/STM32F7xx_HAL_Driver/Src/stm32f7xx_hal_dac.c ****   HAL_StatusTypeDef status = HAL_OK;
1160:../Drivers/STM32F7xx_HAL_Driver/Src/stm32f7xx_hal_dac.c **** 
1161:../Drivers/STM32F7xx_HAL_Driver/Src/stm32f7xx_hal_dac.c ****   /* Process locked */
1162:../Drivers/STM32F7xx_HAL_Driver/Src/stm32f7xx_hal_dac.c ****   __HAL_LOCK(hdac);
1163:../Drivers/STM32F7xx_HAL_Driver/Src/stm32f7xx_hal_dac.c **** 
1164:../Drivers/STM32F7xx_HAL_Driver/Src/stm32f7xx_hal_dac.c ****   if (hdac->State == HAL_DAC_STATE_READY)
1165:../Drivers/STM32F7xx_HAL_Driver/Src/stm32f7xx_hal_dac.c ****   {
1166:../Drivers/STM32F7xx_HAL_Driver/Src/stm32f7xx_hal_dac.c ****     switch (CallbackID)
1167:../Drivers/STM32F7xx_HAL_Driver/Src/stm32f7xx_hal_dac.c ****     {
1168:../Drivers/STM32F7xx_HAL_Driver/Src/stm32f7xx_hal_dac.c ****       case HAL_DAC_CH1_COMPLETE_CB_ID :
1169:../Drivers/STM32F7xx_HAL_Driver/Src/stm32f7xx_hal_dac.c ****         hdac->ConvCpltCallbackCh1 = HAL_DAC_ConvCpltCallbackCh1;
1170:../Drivers/STM32F7xx_HAL_Driver/Src/stm32f7xx_hal_dac.c ****         break;
1171:../Drivers/STM32F7xx_HAL_Driver/Src/stm32f7xx_hal_dac.c ****       case HAL_DAC_CH1_HALF_COMPLETE_CB_ID :
1172:../Drivers/STM32F7xx_HAL_Driver/Src/stm32f7xx_hal_dac.c ****         hdac->ConvHalfCpltCallbackCh1 = HAL_DAC_ConvHalfCpltCallbackCh1;
1173:../Drivers/STM32F7xx_HAL_Driver/Src/stm32f7xx_hal_dac.c ****         break;
1174:../Drivers/STM32F7xx_HAL_Driver/Src/stm32f7xx_hal_dac.c ****       case HAL_DAC_CH1_ERROR_ID :
1175:../Drivers/STM32F7xx_HAL_Driver/Src/stm32f7xx_hal_dac.c ****         hdac->ErrorCallbackCh1 = HAL_DAC_ErrorCallbackCh1;
1176:../Drivers/STM32F7xx_HAL_Driver/Src/stm32f7xx_hal_dac.c ****         break;
1177:../Drivers/STM32F7xx_HAL_Driver/Src/stm32f7xx_hal_dac.c ****       case HAL_DAC_CH1_UNDERRUN_CB_ID :
1178:../Drivers/STM32F7xx_HAL_Driver/Src/stm32f7xx_hal_dac.c ****         hdac->DMAUnderrunCallbackCh1 = HAL_DAC_DMAUnderrunCallbackCh1;
1179:../Drivers/STM32F7xx_HAL_Driver/Src/stm32f7xx_hal_dac.c ****         break;
1180:../Drivers/STM32F7xx_HAL_Driver/Src/stm32f7xx_hal_dac.c **** 
1181:../Drivers/STM32F7xx_HAL_Driver/Src/stm32f7xx_hal_dac.c ****       case HAL_DAC_CH2_COMPLETE_CB_ID :
1182:../Drivers/STM32F7xx_HAL_Driver/Src/stm32f7xx_hal_dac.c ****         hdac->ConvCpltCallbackCh2 = HAL_DACEx_ConvCpltCallbackCh2;
1183:../Drivers/STM32F7xx_HAL_Driver/Src/stm32f7xx_hal_dac.c ****         break;
1184:../Drivers/STM32F7xx_HAL_Driver/Src/stm32f7xx_hal_dac.c ****       case HAL_DAC_CH2_HALF_COMPLETE_CB_ID :
1185:../Drivers/STM32F7xx_HAL_Driver/Src/stm32f7xx_hal_dac.c ****         hdac->ConvHalfCpltCallbackCh2 = HAL_DACEx_ConvHalfCpltCallbackCh2;
1186:../Drivers/STM32F7xx_HAL_Driver/Src/stm32f7xx_hal_dac.c ****         break;
1187:../Drivers/STM32F7xx_HAL_Driver/Src/stm32f7xx_hal_dac.c ****       case HAL_DAC_CH2_ERROR_ID :
1188:../Drivers/STM32F7xx_HAL_Driver/Src/stm32f7xx_hal_dac.c ****         hdac->ErrorCallbackCh2 = HAL_DACEx_ErrorCallbackCh2;
1189:../Drivers/STM32F7xx_HAL_Driver/Src/stm32f7xx_hal_dac.c ****         break;
1190:../Drivers/STM32F7xx_HAL_Driver/Src/stm32f7xx_hal_dac.c ****       case HAL_DAC_CH2_UNDERRUN_CB_ID :
1191:../Drivers/STM32F7xx_HAL_Driver/Src/stm32f7xx_hal_dac.c ****         hdac->DMAUnderrunCallbackCh2 = HAL_DACEx_DMAUnderrunCallbackCh2;
1192:../Drivers/STM32F7xx_HAL_Driver/Src/stm32f7xx_hal_dac.c ****         break;
1193:../Drivers/STM32F7xx_HAL_Driver/Src/stm32f7xx_hal_dac.c **** 
1194:../Drivers/STM32F7xx_HAL_Driver/Src/stm32f7xx_hal_dac.c ****       case HAL_DAC_MSPINIT_CB_ID :
1195:../Drivers/STM32F7xx_HAL_Driver/Src/stm32f7xx_hal_dac.c ****         hdac->MspInitCallback = HAL_DAC_MspInit;
1196:../Drivers/STM32F7xx_HAL_Driver/Src/stm32f7xx_hal_dac.c ****         break;
1197:../Drivers/STM32F7xx_HAL_Driver/Src/stm32f7xx_hal_dac.c ****       case HAL_DAC_MSPDEINIT_CB_ID :
1198:../Drivers/STM32F7xx_HAL_Driver/Src/stm32f7xx_hal_dac.c ****         hdac->MspDeInitCallback = HAL_DAC_MspDeInit;
1199:../Drivers/STM32F7xx_HAL_Driver/Src/stm32f7xx_hal_dac.c ****         break;
1200:../Drivers/STM32F7xx_HAL_Driver/Src/stm32f7xx_hal_dac.c ****       case HAL_DAC_ALL_CB_ID :
1201:../Drivers/STM32F7xx_HAL_Driver/Src/stm32f7xx_hal_dac.c ****         hdac->ConvCpltCallbackCh1 = HAL_DAC_ConvCpltCallbackCh1;
1202:../Drivers/STM32F7xx_HAL_Driver/Src/stm32f7xx_hal_dac.c ****         hdac->ConvHalfCpltCallbackCh1 = HAL_DAC_ConvHalfCpltCallbackCh1;
1203:../Drivers/STM32F7xx_HAL_Driver/Src/stm32f7xx_hal_dac.c ****         hdac->ErrorCallbackCh1 = HAL_DAC_ErrorCallbackCh1;
1204:../Drivers/STM32F7xx_HAL_Driver/Src/stm32f7xx_hal_dac.c ****         hdac->DMAUnderrunCallbackCh1 = HAL_DAC_DMAUnderrunCallbackCh1;
1205:../Drivers/STM32F7xx_HAL_Driver/Src/stm32f7xx_hal_dac.c **** 
1206:../Drivers/STM32F7xx_HAL_Driver/Src/stm32f7xx_hal_dac.c ****         hdac->ConvCpltCallbackCh2 = HAL_DACEx_ConvCpltCallbackCh2;
1207:../Drivers/STM32F7xx_HAL_Driver/Src/stm32f7xx_hal_dac.c ****         hdac->ConvHalfCpltCallbackCh2 = HAL_DACEx_ConvHalfCpltCallbackCh2;
1208:../Drivers/STM32F7xx_HAL_Driver/Src/stm32f7xx_hal_dac.c ****         hdac->ErrorCallbackCh2 = HAL_DACEx_ErrorCallbackCh2;
1209:../Drivers/STM32F7xx_HAL_Driver/Src/stm32f7xx_hal_dac.c ****         hdac->DMAUnderrunCallbackCh2 = HAL_DACEx_DMAUnderrunCallbackCh2;
1210:../Drivers/STM32F7xx_HAL_Driver/Src/stm32f7xx_hal_dac.c **** 
1211:../Drivers/STM32F7xx_HAL_Driver/Src/stm32f7xx_hal_dac.c ****         hdac->MspInitCallback = HAL_DAC_MspInit;
1212:../Drivers/STM32F7xx_HAL_Driver/Src/stm32f7xx_hal_dac.c ****         hdac->MspDeInitCallback = HAL_DAC_MspDeInit;
1213:../Drivers/STM32F7xx_HAL_Driver/Src/stm32f7xx_hal_dac.c ****         break;
1214:../Drivers/STM32F7xx_HAL_Driver/Src/stm32f7xx_hal_dac.c ****       default :
1215:../Drivers/STM32F7xx_HAL_Driver/Src/stm32f7xx_hal_dac.c ****         /* Update the error code */
ARM GAS  /tmp/ccQRGNkD.s 			page 38


1216:../Drivers/STM32F7xx_HAL_Driver/Src/stm32f7xx_hal_dac.c ****         hdac->ErrorCode |= HAL_DAC_ERROR_INVALID_CALLBACK;
1217:../Drivers/STM32F7xx_HAL_Driver/Src/stm32f7xx_hal_dac.c ****         /* update return status */
1218:../Drivers/STM32F7xx_HAL_Driver/Src/stm32f7xx_hal_dac.c ****         status =  HAL_ERROR;
1219:../Drivers/STM32F7xx_HAL_Driver/Src/stm32f7xx_hal_dac.c ****         break;
1220:../Drivers/STM32F7xx_HAL_Driver/Src/stm32f7xx_hal_dac.c ****     }
1221:../Drivers/STM32F7xx_HAL_Driver/Src/stm32f7xx_hal_dac.c ****   }
1222:../Drivers/STM32F7xx_HAL_Driver/Src/stm32f7xx_hal_dac.c ****   else if (hdac->State == HAL_DAC_STATE_RESET)
1223:../Drivers/STM32F7xx_HAL_Driver/Src/stm32f7xx_hal_dac.c ****   {
1224:../Drivers/STM32F7xx_HAL_Driver/Src/stm32f7xx_hal_dac.c ****     switch (CallbackID)
1225:../Drivers/STM32F7xx_HAL_Driver/Src/stm32f7xx_hal_dac.c ****     {
1226:../Drivers/STM32F7xx_HAL_Driver/Src/stm32f7xx_hal_dac.c ****       case HAL_DAC_MSPINIT_CB_ID :
1227:../Drivers/STM32F7xx_HAL_Driver/Src/stm32f7xx_hal_dac.c ****         hdac->MspInitCallback = HAL_DAC_MspInit;
1228:../Drivers/STM32F7xx_HAL_Driver/Src/stm32f7xx_hal_dac.c ****         break;
1229:../Drivers/STM32F7xx_HAL_Driver/Src/stm32f7xx_hal_dac.c ****       case HAL_DAC_MSPDEINIT_CB_ID :
1230:../Drivers/STM32F7xx_HAL_Driver/Src/stm32f7xx_hal_dac.c ****         hdac->MspDeInitCallback = HAL_DAC_MspDeInit;
1231:../Drivers/STM32F7xx_HAL_Driver/Src/stm32f7xx_hal_dac.c ****         break;
1232:../Drivers/STM32F7xx_HAL_Driver/Src/stm32f7xx_hal_dac.c ****       default :
1233:../Drivers/STM32F7xx_HAL_Driver/Src/stm32f7xx_hal_dac.c ****         /* Update the error code */
1234:../Drivers/STM32F7xx_HAL_Driver/Src/stm32f7xx_hal_dac.c ****         hdac->ErrorCode |= HAL_DAC_ERROR_INVALID_CALLBACK;
1235:../Drivers/STM32F7xx_HAL_Driver/Src/stm32f7xx_hal_dac.c ****         /* update return status */
1236:../Drivers/STM32F7xx_HAL_Driver/Src/stm32f7xx_hal_dac.c ****         status =  HAL_ERROR;
1237:../Drivers/STM32F7xx_HAL_Driver/Src/stm32f7xx_hal_dac.c ****         break;
1238:../Drivers/STM32F7xx_HAL_Driver/Src/stm32f7xx_hal_dac.c ****     }
1239:../Drivers/STM32F7xx_HAL_Driver/Src/stm32f7xx_hal_dac.c ****   }
1240:../Drivers/STM32F7xx_HAL_Driver/Src/stm32f7xx_hal_dac.c ****   else
1241:../Drivers/STM32F7xx_HAL_Driver/Src/stm32f7xx_hal_dac.c ****   {
1242:../Drivers/STM32F7xx_HAL_Driver/Src/stm32f7xx_hal_dac.c ****     /* Update the error code */
1243:../Drivers/STM32F7xx_HAL_Driver/Src/stm32f7xx_hal_dac.c ****     hdac->ErrorCode |= HAL_DAC_ERROR_INVALID_CALLBACK;
1244:../Drivers/STM32F7xx_HAL_Driver/Src/stm32f7xx_hal_dac.c ****     /* update return status */
1245:../Drivers/STM32F7xx_HAL_Driver/Src/stm32f7xx_hal_dac.c ****     status =  HAL_ERROR;
1246:../Drivers/STM32F7xx_HAL_Driver/Src/stm32f7xx_hal_dac.c ****   }
1247:../Drivers/STM32F7xx_HAL_Driver/Src/stm32f7xx_hal_dac.c **** 
1248:../Drivers/STM32F7xx_HAL_Driver/Src/stm32f7xx_hal_dac.c ****   /* Release Lock */
1249:../Drivers/STM32F7xx_HAL_Driver/Src/stm32f7xx_hal_dac.c ****   __HAL_UNLOCK(hdac);
1250:../Drivers/STM32F7xx_HAL_Driver/Src/stm32f7xx_hal_dac.c ****   return status;
1251:../Drivers/STM32F7xx_HAL_Driver/Src/stm32f7xx_hal_dac.c **** }
1252:../Drivers/STM32F7xx_HAL_Driver/Src/stm32f7xx_hal_dac.c **** #endif /* USE_HAL_DAC_REGISTER_CALLBACKS */
1253:../Drivers/STM32F7xx_HAL_Driver/Src/stm32f7xx_hal_dac.c **** 
1254:../Drivers/STM32F7xx_HAL_Driver/Src/stm32f7xx_hal_dac.c **** /**
1255:../Drivers/STM32F7xx_HAL_Driver/Src/stm32f7xx_hal_dac.c ****   * @}
1256:../Drivers/STM32F7xx_HAL_Driver/Src/stm32f7xx_hal_dac.c ****   */
1257:../Drivers/STM32F7xx_HAL_Driver/Src/stm32f7xx_hal_dac.c **** 
1258:../Drivers/STM32F7xx_HAL_Driver/Src/stm32f7xx_hal_dac.c **** /**
1259:../Drivers/STM32F7xx_HAL_Driver/Src/stm32f7xx_hal_dac.c ****   * @}
1260:../Drivers/STM32F7xx_HAL_Driver/Src/stm32f7xx_hal_dac.c ****   */
1261:../Drivers/STM32F7xx_HAL_Driver/Src/stm32f7xx_hal_dac.c **** 
1262:../Drivers/STM32F7xx_HAL_Driver/Src/stm32f7xx_hal_dac.c **** /** @addtogroup DAC_Private_Functions
1263:../Drivers/STM32F7xx_HAL_Driver/Src/stm32f7xx_hal_dac.c ****   * @{
1264:../Drivers/STM32F7xx_HAL_Driver/Src/stm32f7xx_hal_dac.c ****   */
1265:../Drivers/STM32F7xx_HAL_Driver/Src/stm32f7xx_hal_dac.c **** 
1266:../Drivers/STM32F7xx_HAL_Driver/Src/stm32f7xx_hal_dac.c **** /**
1267:../Drivers/STM32F7xx_HAL_Driver/Src/stm32f7xx_hal_dac.c ****   * @brief  DMA conversion complete callback.
1268:../Drivers/STM32F7xx_HAL_Driver/Src/stm32f7xx_hal_dac.c ****   * @param  hdma pointer to a DMA_HandleTypeDef structure that contains
1269:../Drivers/STM32F7xx_HAL_Driver/Src/stm32f7xx_hal_dac.c ****   *                the configuration information for the specified DMA module.
1270:../Drivers/STM32F7xx_HAL_Driver/Src/stm32f7xx_hal_dac.c ****   * @retval None
1271:../Drivers/STM32F7xx_HAL_Driver/Src/stm32f7xx_hal_dac.c ****   */
1272:../Drivers/STM32F7xx_HAL_Driver/Src/stm32f7xx_hal_dac.c **** void DAC_DMAConvCpltCh1(DMA_HandleTypeDef *hdma)
ARM GAS  /tmp/ccQRGNkD.s 			page 39


1273:../Drivers/STM32F7xx_HAL_Driver/Src/stm32f7xx_hal_dac.c **** {
 816              		.loc 1 1273 1 is_stmt 1 view -0
 817              		.cfi_startproc
 818              		@ args = 0, pretend = 0, frame = 0
 819              		@ frame_needed = 0, uses_anonymous_args = 0
 820              		.loc 1 1273 1 is_stmt 0 view .LVU225
 821 0000 10B5     		push	{r4, lr}
 822              	.LCFI17:
 823              		.cfi_def_cfa_offset 8
 824              		.cfi_offset 4, -8
 825              		.cfi_offset 14, -4
1274:../Drivers/STM32F7xx_HAL_Driver/Src/stm32f7xx_hal_dac.c ****   DAC_HandleTypeDef *hdac = (DAC_HandleTypeDef *)((DMA_HandleTypeDef *)hdma)->Parent;
 826              		.loc 1 1274 3 is_stmt 1 view .LVU226
 827              		.loc 1 1274 22 is_stmt 0 view .LVU227
 828 0002 846B     		ldr	r4, [r0, #56]
 829              	.LVL58:
1275:../Drivers/STM32F7xx_HAL_Driver/Src/stm32f7xx_hal_dac.c **** 
1276:../Drivers/STM32F7xx_HAL_Driver/Src/stm32f7xx_hal_dac.c **** #if (USE_HAL_DAC_REGISTER_CALLBACKS == 1)
1277:../Drivers/STM32F7xx_HAL_Driver/Src/stm32f7xx_hal_dac.c ****   hdac->ConvCpltCallbackCh1(hdac);
1278:../Drivers/STM32F7xx_HAL_Driver/Src/stm32f7xx_hal_dac.c **** #else
1279:../Drivers/STM32F7xx_HAL_Driver/Src/stm32f7xx_hal_dac.c ****   HAL_DAC_ConvCpltCallbackCh1(hdac);
 830              		.loc 1 1279 3 is_stmt 1 view .LVU228
 831 0004 2046     		mov	r0, r4
 832              	.LVL59:
 833              		.loc 1 1279 3 is_stmt 0 view .LVU229
 834 0006 FFF7FEFF 		bl	HAL_DAC_ConvCpltCallbackCh1
 835              	.LVL60:
1280:../Drivers/STM32F7xx_HAL_Driver/Src/stm32f7xx_hal_dac.c **** #endif /* USE_HAL_DAC_REGISTER_CALLBACKS */
1281:../Drivers/STM32F7xx_HAL_Driver/Src/stm32f7xx_hal_dac.c **** 
1282:../Drivers/STM32F7xx_HAL_Driver/Src/stm32f7xx_hal_dac.c ****   hdac->State = HAL_DAC_STATE_READY;
 836              		.loc 1 1282 3 is_stmt 1 view .LVU230
 837              		.loc 1 1282 15 is_stmt 0 view .LVU231
 838 000a 0123     		movs	r3, #1
 839 000c 2371     		strb	r3, [r4, #4]
1283:../Drivers/STM32F7xx_HAL_Driver/Src/stm32f7xx_hal_dac.c **** }
 840              		.loc 1 1283 1 view .LVU232
 841 000e 10BD     		pop	{r4, pc}
 842              		.loc 1 1283 1 view .LVU233
 843              		.cfi_endproc
 844              	.LFE159:
 846              		.section	.text.HAL_DAC_ConvHalfCpltCallbackCh1,"ax",%progbits
 847              		.align	1
 848              		.weak	HAL_DAC_ConvHalfCpltCallbackCh1
 849              		.syntax unified
 850              		.thumb
 851              		.thumb_func
 852              		.fpu fpv5-d16
 854              	HAL_DAC_ConvHalfCpltCallbackCh1:
 855              	.LVL61:
 856              	.LFB152:
 824:../Drivers/STM32F7xx_HAL_Driver/Src/stm32f7xx_hal_dac.c ****   /* Prevent unused argument(s) compilation warning */
 857              		.loc 1 824 1 is_stmt 1 view -0
 858              		.cfi_startproc
 859              		@ args = 0, pretend = 0, frame = 0
 860              		@ frame_needed = 0, uses_anonymous_args = 0
 861              		@ link register save eliminated.
 826:../Drivers/STM32F7xx_HAL_Driver/Src/stm32f7xx_hal_dac.c **** 
ARM GAS  /tmp/ccQRGNkD.s 			page 40


 862              		.loc 1 826 3 view .LVU235
 831:../Drivers/STM32F7xx_HAL_Driver/Src/stm32f7xx_hal_dac.c **** 
 863              		.loc 1 831 1 is_stmt 0 view .LVU236
 864 0000 7047     		bx	lr
 865              		.cfi_endproc
 866              	.LFE152:
 868              		.section	.text.DAC_DMAHalfConvCpltCh1,"ax",%progbits
 869              		.align	1
 870              		.global	DAC_DMAHalfConvCpltCh1
 871              		.syntax unified
 872              		.thumb
 873              		.thumb_func
 874              		.fpu fpv5-d16
 876              	DAC_DMAHalfConvCpltCh1:
 877              	.LVL62:
 878              	.LFB160:
1284:../Drivers/STM32F7xx_HAL_Driver/Src/stm32f7xx_hal_dac.c **** 
1285:../Drivers/STM32F7xx_HAL_Driver/Src/stm32f7xx_hal_dac.c **** /**
1286:../Drivers/STM32F7xx_HAL_Driver/Src/stm32f7xx_hal_dac.c ****   * @brief  DMA half transfer complete callback.
1287:../Drivers/STM32F7xx_HAL_Driver/Src/stm32f7xx_hal_dac.c ****   * @param  hdma pointer to a DMA_HandleTypeDef structure that contains
1288:../Drivers/STM32F7xx_HAL_Driver/Src/stm32f7xx_hal_dac.c ****   *                the configuration information for the specified DMA module.
1289:../Drivers/STM32F7xx_HAL_Driver/Src/stm32f7xx_hal_dac.c ****   * @retval None
1290:../Drivers/STM32F7xx_HAL_Driver/Src/stm32f7xx_hal_dac.c ****   */
1291:../Drivers/STM32F7xx_HAL_Driver/Src/stm32f7xx_hal_dac.c **** void DAC_DMAHalfConvCpltCh1(DMA_HandleTypeDef *hdma)
1292:../Drivers/STM32F7xx_HAL_Driver/Src/stm32f7xx_hal_dac.c **** {
 879              		.loc 1 1292 1 is_stmt 1 view -0
 880              		.cfi_startproc
 881              		@ args = 0, pretend = 0, frame = 0
 882              		@ frame_needed = 0, uses_anonymous_args = 0
 883              		.loc 1 1292 1 is_stmt 0 view .LVU238
 884 0000 08B5     		push	{r3, lr}
 885              	.LCFI18:
 886              		.cfi_def_cfa_offset 8
 887              		.cfi_offset 3, -8
 888              		.cfi_offset 14, -4
1293:../Drivers/STM32F7xx_HAL_Driver/Src/stm32f7xx_hal_dac.c ****   DAC_HandleTypeDef *hdac = (DAC_HandleTypeDef *)((DMA_HandleTypeDef *)hdma)->Parent;
 889              		.loc 1 1293 3 is_stmt 1 view .LVU239
 890              	.LVL63:
1294:../Drivers/STM32F7xx_HAL_Driver/Src/stm32f7xx_hal_dac.c ****   /* Conversion complete callback */
1295:../Drivers/STM32F7xx_HAL_Driver/Src/stm32f7xx_hal_dac.c **** #if (USE_HAL_DAC_REGISTER_CALLBACKS == 1)
1296:../Drivers/STM32F7xx_HAL_Driver/Src/stm32f7xx_hal_dac.c ****   hdac->ConvHalfCpltCallbackCh1(hdac);
1297:../Drivers/STM32F7xx_HAL_Driver/Src/stm32f7xx_hal_dac.c **** #else
1298:../Drivers/STM32F7xx_HAL_Driver/Src/stm32f7xx_hal_dac.c ****   HAL_DAC_ConvHalfCpltCallbackCh1(hdac);
 891              		.loc 1 1298 3 view .LVU240
 892 0002 806B     		ldr	r0, [r0, #56]
 893              	.LVL64:
 894              		.loc 1 1298 3 is_stmt 0 view .LVU241
 895 0004 FFF7FEFF 		bl	HAL_DAC_ConvHalfCpltCallbackCh1
 896              	.LVL65:
1299:../Drivers/STM32F7xx_HAL_Driver/Src/stm32f7xx_hal_dac.c **** #endif  /* USE_HAL_DAC_REGISTER_CALLBACKS */
1300:../Drivers/STM32F7xx_HAL_Driver/Src/stm32f7xx_hal_dac.c **** }
 897              		.loc 1 1300 1 view .LVU242
 898 0008 08BD     		pop	{r3, pc}
 899              		.cfi_endproc
 900              	.LFE160:
 902              		.section	.text.HAL_DAC_ErrorCallbackCh1,"ax",%progbits
 903              		.align	1
ARM GAS  /tmp/ccQRGNkD.s 			page 41


 904              		.weak	HAL_DAC_ErrorCallbackCh1
 905              		.syntax unified
 906              		.thumb
 907              		.thumb_func
 908              		.fpu fpv5-d16
 910              	HAL_DAC_ErrorCallbackCh1:
 911              	.LVL66:
 912              	.LFB153:
 840:../Drivers/STM32F7xx_HAL_Driver/Src/stm32f7xx_hal_dac.c ****   /* Prevent unused argument(s) compilation warning */
 913              		.loc 1 840 1 is_stmt 1 view -0
 914              		.cfi_startproc
 915              		@ args = 0, pretend = 0, frame = 0
 916              		@ frame_needed = 0, uses_anonymous_args = 0
 917              		@ link register save eliminated.
 842:../Drivers/STM32F7xx_HAL_Driver/Src/stm32f7xx_hal_dac.c **** 
 918              		.loc 1 842 3 view .LVU244
 847:../Drivers/STM32F7xx_HAL_Driver/Src/stm32f7xx_hal_dac.c **** 
 919              		.loc 1 847 1 is_stmt 0 view .LVU245
 920 0000 7047     		bx	lr
 921              		.cfi_endproc
 922              	.LFE153:
 924              		.section	.text.DAC_DMAErrorCh1,"ax",%progbits
 925              		.align	1
 926              		.global	DAC_DMAErrorCh1
 927              		.syntax unified
 928              		.thumb
 929              		.thumb_func
 930              		.fpu fpv5-d16
 932              	DAC_DMAErrorCh1:
 933              	.LVL67:
 934              	.LFB161:
1301:../Drivers/STM32F7xx_HAL_Driver/Src/stm32f7xx_hal_dac.c **** 
1302:../Drivers/STM32F7xx_HAL_Driver/Src/stm32f7xx_hal_dac.c **** /**
1303:../Drivers/STM32F7xx_HAL_Driver/Src/stm32f7xx_hal_dac.c ****   * @brief  DMA error callback
1304:../Drivers/STM32F7xx_HAL_Driver/Src/stm32f7xx_hal_dac.c ****   * @param  hdma pointer to a DMA_HandleTypeDef structure that contains
1305:../Drivers/STM32F7xx_HAL_Driver/Src/stm32f7xx_hal_dac.c ****   *                the configuration information for the specified DMA module.
1306:../Drivers/STM32F7xx_HAL_Driver/Src/stm32f7xx_hal_dac.c ****   * @retval None
1307:../Drivers/STM32F7xx_HAL_Driver/Src/stm32f7xx_hal_dac.c ****   */
1308:../Drivers/STM32F7xx_HAL_Driver/Src/stm32f7xx_hal_dac.c **** void DAC_DMAErrorCh1(DMA_HandleTypeDef *hdma)
1309:../Drivers/STM32F7xx_HAL_Driver/Src/stm32f7xx_hal_dac.c **** {
 935              		.loc 1 1309 1 is_stmt 1 view -0
 936              		.cfi_startproc
 937              		@ args = 0, pretend = 0, frame = 0
 938              		@ frame_needed = 0, uses_anonymous_args = 0
 939              		.loc 1 1309 1 is_stmt 0 view .LVU247
 940 0000 10B5     		push	{r4, lr}
 941              	.LCFI19:
 942              		.cfi_def_cfa_offset 8
 943              		.cfi_offset 4, -8
 944              		.cfi_offset 14, -4
1310:../Drivers/STM32F7xx_HAL_Driver/Src/stm32f7xx_hal_dac.c ****   DAC_HandleTypeDef *hdac = (DAC_HandleTypeDef *)((DMA_HandleTypeDef *)hdma)->Parent;
 945              		.loc 1 1310 3 is_stmt 1 view .LVU248
 946              		.loc 1 1310 22 is_stmt 0 view .LVU249
 947 0002 846B     		ldr	r4, [r0, #56]
 948              	.LVL68:
1311:../Drivers/STM32F7xx_HAL_Driver/Src/stm32f7xx_hal_dac.c **** 
1312:../Drivers/STM32F7xx_HAL_Driver/Src/stm32f7xx_hal_dac.c ****   /* Set DAC error code to DMA error */
ARM GAS  /tmp/ccQRGNkD.s 			page 42


1313:../Drivers/STM32F7xx_HAL_Driver/Src/stm32f7xx_hal_dac.c ****   hdac->ErrorCode |= HAL_DAC_ERROR_DMA;
 949              		.loc 1 1313 3 is_stmt 1 view .LVU250
 950              		.loc 1 1313 19 is_stmt 0 view .LVU251
 951 0004 2369     		ldr	r3, [r4, #16]
 952 0006 43F00403 		orr	r3, r3, #4
 953 000a 2361     		str	r3, [r4, #16]
1314:../Drivers/STM32F7xx_HAL_Driver/Src/stm32f7xx_hal_dac.c **** 
1315:../Drivers/STM32F7xx_HAL_Driver/Src/stm32f7xx_hal_dac.c **** #if (USE_HAL_DAC_REGISTER_CALLBACKS == 1)
1316:../Drivers/STM32F7xx_HAL_Driver/Src/stm32f7xx_hal_dac.c ****   hdac->ErrorCallbackCh1(hdac);
1317:../Drivers/STM32F7xx_HAL_Driver/Src/stm32f7xx_hal_dac.c **** #else
1318:../Drivers/STM32F7xx_HAL_Driver/Src/stm32f7xx_hal_dac.c ****   HAL_DAC_ErrorCallbackCh1(hdac);
 954              		.loc 1 1318 3 is_stmt 1 view .LVU252
 955 000c 2046     		mov	r0, r4
 956              	.LVL69:
 957              		.loc 1 1318 3 is_stmt 0 view .LVU253
 958 000e FFF7FEFF 		bl	HAL_DAC_ErrorCallbackCh1
 959              	.LVL70:
1319:../Drivers/STM32F7xx_HAL_Driver/Src/stm32f7xx_hal_dac.c **** #endif /* USE_HAL_DAC_REGISTER_CALLBACKS */
1320:../Drivers/STM32F7xx_HAL_Driver/Src/stm32f7xx_hal_dac.c **** 
1321:../Drivers/STM32F7xx_HAL_Driver/Src/stm32f7xx_hal_dac.c ****   hdac->State = HAL_DAC_STATE_READY;
 960              		.loc 1 1321 3 is_stmt 1 view .LVU254
 961              		.loc 1 1321 15 is_stmt 0 view .LVU255
 962 0012 0123     		movs	r3, #1
 963 0014 2371     		strb	r3, [r4, #4]
1322:../Drivers/STM32F7xx_HAL_Driver/Src/stm32f7xx_hal_dac.c **** }
 964              		.loc 1 1322 1 view .LVU256
 965 0016 10BD     		pop	{r4, pc}
 966              		.loc 1 1322 1 view .LVU257
 967              		.cfi_endproc
 968              	.LFE161:
 970              		.section	.text.HAL_DAC_DMAUnderrunCallbackCh1,"ax",%progbits
 971              		.align	1
 972              		.weak	HAL_DAC_DMAUnderrunCallbackCh1
 973              		.syntax unified
 974              		.thumb
 975              		.thumb_func
 976              		.fpu fpv5-d16
 978              	HAL_DAC_DMAUnderrunCallbackCh1:
 979              	.LVL71:
 980              	.LFB154:
 856:../Drivers/STM32F7xx_HAL_Driver/Src/stm32f7xx_hal_dac.c ****   /* Prevent unused argument(s) compilation warning */
 981              		.loc 1 856 1 is_stmt 1 view -0
 982              		.cfi_startproc
 983              		@ args = 0, pretend = 0, frame = 0
 984              		@ frame_needed = 0, uses_anonymous_args = 0
 985              		@ link register save eliminated.
 858:../Drivers/STM32F7xx_HAL_Driver/Src/stm32f7xx_hal_dac.c **** 
 986              		.loc 1 858 3 view .LVU259
 863:../Drivers/STM32F7xx_HAL_Driver/Src/stm32f7xx_hal_dac.c **** 
 987              		.loc 1 863 1 is_stmt 0 view .LVU260
 988 0000 7047     		bx	lr
 989              		.cfi_endproc
 990              	.LFE154:
 992              		.section	.text.HAL_DAC_IRQHandler,"ax",%progbits
 993              		.align	1
 994              		.global	HAL_DAC_IRQHandler
 995              		.syntax unified
ARM GAS  /tmp/ccQRGNkD.s 			page 43


 996              		.thumb
 997              		.thumb_func
 998              		.fpu fpv5-d16
 1000              	HAL_DAC_IRQHandler:
 1001              	.LVL72:
 1002              	.LFB149:
 701:../Drivers/STM32F7xx_HAL_Driver/Src/stm32f7xx_hal_dac.c ****   if (__HAL_DAC_GET_IT_SOURCE(hdac, DAC_IT_DMAUDR1))
 1003              		.loc 1 701 1 is_stmt 1 view -0
 1004              		.cfi_startproc
 1005              		@ args = 0, pretend = 0, frame = 0
 1006              		@ frame_needed = 0, uses_anonymous_args = 0
 701:../Drivers/STM32F7xx_HAL_Driver/Src/stm32f7xx_hal_dac.c ****   if (__HAL_DAC_GET_IT_SOURCE(hdac, DAC_IT_DMAUDR1))
 1007              		.loc 1 701 1 is_stmt 0 view .LVU262
 1008 0000 10B5     		push	{r4, lr}
 1009              	.LCFI20:
 1010              		.cfi_def_cfa_offset 8
 1011              		.cfi_offset 4, -8
 1012              		.cfi_offset 14, -4
 1013 0002 0446     		mov	r4, r0
 702:../Drivers/STM32F7xx_HAL_Driver/Src/stm32f7xx_hal_dac.c ****   {
 1014              		.loc 1 702 3 is_stmt 1 view .LVU263
 702:../Drivers/STM32F7xx_HAL_Driver/Src/stm32f7xx_hal_dac.c ****   {
 1015              		.loc 1 702 7 is_stmt 0 view .LVU264
 1016 0004 0368     		ldr	r3, [r0]
 1017 0006 1A68     		ldr	r2, [r3]
 702:../Drivers/STM32F7xx_HAL_Driver/Src/stm32f7xx_hal_dac.c ****   {
 1018              		.loc 1 702 6 view .LVU265
 1019 0008 12F4005F 		tst	r2, #8192
 1020 000c 03D0     		beq	.L69
 705:../Drivers/STM32F7xx_HAL_Driver/Src/stm32f7xx_hal_dac.c ****     {
 1021              		.loc 1 705 5 is_stmt 1 view .LVU266
 705:../Drivers/STM32F7xx_HAL_Driver/Src/stm32f7xx_hal_dac.c ****     {
 1022              		.loc 1 705 9 is_stmt 0 view .LVU267
 1023 000e 5A6B     		ldr	r2, [r3, #52]
 705:../Drivers/STM32F7xx_HAL_Driver/Src/stm32f7xx_hal_dac.c ****     {
 1024              		.loc 1 705 8 view .LVU268
 1025 0010 12F4005F 		tst	r2, #8192
 1026 0014 09D1     		bne	.L72
 1027              	.LVL73:
 1028              	.L69:
 729:../Drivers/STM32F7xx_HAL_Driver/Src/stm32f7xx_hal_dac.c ****   {
 1029              		.loc 1 729 3 is_stmt 1 view .LVU269
 729:../Drivers/STM32F7xx_HAL_Driver/Src/stm32f7xx_hal_dac.c ****   {
 1030              		.loc 1 729 7 is_stmt 0 view .LVU270
 1031 0016 2368     		ldr	r3, [r4]
 1032 0018 1A68     		ldr	r2, [r3]
 729:../Drivers/STM32F7xx_HAL_Driver/Src/stm32f7xx_hal_dac.c ****   {
 1033              		.loc 1 729 6 view .LVU271
 1034 001a 12F0005F 		tst	r2, #536870912
 1035 001e 03D0     		beq	.L68
 732:../Drivers/STM32F7xx_HAL_Driver/Src/stm32f7xx_hal_dac.c ****     {
 1036              		.loc 1 732 5 is_stmt 1 view .LVU272
 732:../Drivers/STM32F7xx_HAL_Driver/Src/stm32f7xx_hal_dac.c ****     {
 1037              		.loc 1 732 9 is_stmt 0 view .LVU273
 1038 0020 5A6B     		ldr	r2, [r3, #52]
 732:../Drivers/STM32F7xx_HAL_Driver/Src/stm32f7xx_hal_dac.c ****     {
 1039              		.loc 1 732 8 view .LVU274
ARM GAS  /tmp/ccQRGNkD.s 			page 44


 1040 0022 12F0005F 		tst	r2, #536870912
 1041 0026 11D1     		bne	.L73
 1042              	.L68:
 755:../Drivers/STM32F7xx_HAL_Driver/Src/stm32f7xx_hal_dac.c **** 
 1043              		.loc 1 755 1 view .LVU275
 1044 0028 10BD     		pop	{r4, pc}
 1045              	.LVL74:
 1046              	.L72:
 708:../Drivers/STM32F7xx_HAL_Driver/Src/stm32f7xx_hal_dac.c **** 
 1047              		.loc 1 708 7 is_stmt 1 view .LVU276
 708:../Drivers/STM32F7xx_HAL_Driver/Src/stm32f7xx_hal_dac.c **** 
 1048              		.loc 1 708 19 is_stmt 0 view .LVU277
 1049 002a 0422     		movs	r2, #4
 1050 002c 0271     		strb	r2, [r0, #4]
 711:../Drivers/STM32F7xx_HAL_Driver/Src/stm32f7xx_hal_dac.c **** 
 1051              		.loc 1 711 7 is_stmt 1 view .LVU278
 1052 002e 0269     		ldr	r2, [r0, #16]
 1053 0030 42F00102 		orr	r2, r2, #1
 1054 0034 0261     		str	r2, [r0, #16]
 714:../Drivers/STM32F7xx_HAL_Driver/Src/stm32f7xx_hal_dac.c **** 
 1055              		.loc 1 714 7 view .LVU279
 1056 0036 4FF40052 		mov	r2, #8192
 1057 003a 5A63     		str	r2, [r3, #52]
 717:../Drivers/STM32F7xx_HAL_Driver/Src/stm32f7xx_hal_dac.c **** 
 1058              		.loc 1 717 7 view .LVU280
 1059 003c 0268     		ldr	r2, [r0]
 1060 003e 1368     		ldr	r3, [r2]
 1061 0040 23F48053 		bic	r3, r3, #4096
 1062 0044 1360     		str	r3, [r2]
 723:../Drivers/STM32F7xx_HAL_Driver/Src/stm32f7xx_hal_dac.c **** #endif /* USE_HAL_DAC_REGISTER_CALLBACKS */
 1063              		.loc 1 723 7 view .LVU281
 1064 0046 FFF7FEFF 		bl	HAL_DAC_DMAUnderrunCallbackCh1
 1065              	.LVL75:
 723:../Drivers/STM32F7xx_HAL_Driver/Src/stm32f7xx_hal_dac.c **** #endif /* USE_HAL_DAC_REGISTER_CALLBACKS */
 1066              		.loc 1 723 7 is_stmt 0 view .LVU282
 1067 004a E4E7     		b	.L69
 1068              	.L73:
 735:../Drivers/STM32F7xx_HAL_Driver/Src/stm32f7xx_hal_dac.c **** 
 1069              		.loc 1 735 7 is_stmt 1 view .LVU283
 735:../Drivers/STM32F7xx_HAL_Driver/Src/stm32f7xx_hal_dac.c **** 
 1070              		.loc 1 735 19 is_stmt 0 view .LVU284
 1071 004c 0422     		movs	r2, #4
 1072 004e 2271     		strb	r2, [r4, #4]
 738:../Drivers/STM32F7xx_HAL_Driver/Src/stm32f7xx_hal_dac.c **** 
 1073              		.loc 1 738 7 is_stmt 1 view .LVU285
 1074 0050 2269     		ldr	r2, [r4, #16]
 1075 0052 42F00202 		orr	r2, r2, #2
 1076 0056 2261     		str	r2, [r4, #16]
 741:../Drivers/STM32F7xx_HAL_Driver/Src/stm32f7xx_hal_dac.c **** 
 1077              		.loc 1 741 7 view .LVU286
 1078 0058 4FF00052 		mov	r2, #536870912
 1079 005c 5A63     		str	r2, [r3, #52]
 744:../Drivers/STM32F7xx_HAL_Driver/Src/stm32f7xx_hal_dac.c **** 
 1080              		.loc 1 744 7 view .LVU287
 1081 005e 2268     		ldr	r2, [r4]
 1082 0060 1368     		ldr	r3, [r2]
 1083 0062 23F08053 		bic	r3, r3, #268435456
ARM GAS  /tmp/ccQRGNkD.s 			page 45


 1084 0066 1360     		str	r3, [r2]
 750:../Drivers/STM32F7xx_HAL_Driver/Src/stm32f7xx_hal_dac.c **** #endif /* USE_HAL_DAC_REGISTER_CALLBACKS */
 1085              		.loc 1 750 7 view .LVU288
 1086 0068 2046     		mov	r0, r4
 1087 006a FFF7FEFF 		bl	HAL_DACEx_DMAUnderrunCallbackCh2
 1088              	.LVL76:
 755:../Drivers/STM32F7xx_HAL_Driver/Src/stm32f7xx_hal_dac.c **** 
 1089              		.loc 1 755 1 is_stmt 0 view .LVU289
 1090 006e DBE7     		b	.L68
 1091              		.cfi_endproc
 1092              	.LFE149:
 1094              		.section	.text.HAL_DAC_GetValue,"ax",%progbits
 1095              		.align	1
 1096              		.global	HAL_DAC_GetValue
 1097              		.syntax unified
 1098              		.thumb
 1099              		.thumb_func
 1100              		.fpu fpv5-d16
 1102              	HAL_DAC_GetValue:
 1103              	.LVL77:
 1104              	.LFB155:
 895:../Drivers/STM32F7xx_HAL_Driver/Src/stm32f7xx_hal_dac.c ****   uint32_t result;
 1105              		.loc 1 895 1 is_stmt 1 view -0
 1106              		.cfi_startproc
 1107              		@ args = 0, pretend = 0, frame = 0
 1108              		@ frame_needed = 0, uses_anonymous_args = 0
 1109              		@ link register save eliminated.
 896:../Drivers/STM32F7xx_HAL_Driver/Src/stm32f7xx_hal_dac.c **** 
 1110              		.loc 1 896 3 view .LVU291
 899:../Drivers/STM32F7xx_HAL_Driver/Src/stm32f7xx_hal_dac.c **** 
 1111              		.loc 1 899 3 view .LVU292
 901:../Drivers/STM32F7xx_HAL_Driver/Src/stm32f7xx_hal_dac.c ****   {
 1112              		.loc 1 901 3 view .LVU293
 901:../Drivers/STM32F7xx_HAL_Driver/Src/stm32f7xx_hal_dac.c ****   {
 1113              		.loc 1 901 6 is_stmt 0 view .LVU294
 1114 0000 11B9     		cbnz	r1, .L75
 903:../Drivers/STM32F7xx_HAL_Driver/Src/stm32f7xx_hal_dac.c ****   }
 1115              		.loc 1 903 5 is_stmt 1 view .LVU295
 903:../Drivers/STM32F7xx_HAL_Driver/Src/stm32f7xx_hal_dac.c ****   }
 1116              		.loc 1 903 18 is_stmt 0 view .LVU296
 1117 0002 0368     		ldr	r3, [r0]
 903:../Drivers/STM32F7xx_HAL_Driver/Src/stm32f7xx_hal_dac.c ****   }
 1118              		.loc 1 903 12 view .LVU297
 1119 0004 D86A     		ldr	r0, [r3, #44]
 1120              	.LVL78:
 903:../Drivers/STM32F7xx_HAL_Driver/Src/stm32f7xx_hal_dac.c ****   }
 1121              		.loc 1 903 12 view .LVU298
 1122 0006 7047     		bx	lr
 1123              	.LVL79:
 1124              	.L75:
 908:../Drivers/STM32F7xx_HAL_Driver/Src/stm32f7xx_hal_dac.c ****   }
 1125              		.loc 1 908 5 is_stmt 1 view .LVU299
 908:../Drivers/STM32F7xx_HAL_Driver/Src/stm32f7xx_hal_dac.c ****   }
 1126              		.loc 1 908 18 is_stmt 0 view .LVU300
 1127 0008 0368     		ldr	r3, [r0]
 908:../Drivers/STM32F7xx_HAL_Driver/Src/stm32f7xx_hal_dac.c ****   }
 1128              		.loc 1 908 12 view .LVU301
ARM GAS  /tmp/ccQRGNkD.s 			page 46


 1129 000a 186B     		ldr	r0, [r3, #48]
 1130              	.LVL80:
 912:../Drivers/STM32F7xx_HAL_Driver/Src/stm32f7xx_hal_dac.c **** }
 1131              		.loc 1 912 3 is_stmt 1 view .LVU302
 913:../Drivers/STM32F7xx_HAL_Driver/Src/stm32f7xx_hal_dac.c **** 
 1132              		.loc 1 913 1 is_stmt 0 view .LVU303
 1133 000c 7047     		bx	lr
 1134              		.cfi_endproc
 1135              	.LFE155:
 1137              		.section	.text.HAL_DAC_ConfigChannel,"ax",%progbits
 1138              		.align	1
 1139              		.global	HAL_DAC_ConfigChannel
 1140              		.syntax unified
 1141              		.thumb
 1142              		.thumb_func
 1143              		.fpu fpv5-d16
 1145              	HAL_DAC_ConfigChannel:
 1146              	.LVL81:
 1147              	.LFB156:
 927:../Drivers/STM32F7xx_HAL_Driver/Src/stm32f7xx_hal_dac.c ****   uint32_t tmpreg1;
 1148              		.loc 1 927 1 is_stmt 1 view -0
 1149              		.cfi_startproc
 1150              		@ args = 0, pretend = 0, frame = 0
 1151              		@ frame_needed = 0, uses_anonymous_args = 0
 928:../Drivers/STM32F7xx_HAL_Driver/Src/stm32f7xx_hal_dac.c ****   uint32_t tmpreg2;
 1152              		.loc 1 928 3 view .LVU305
 929:../Drivers/STM32F7xx_HAL_Driver/Src/stm32f7xx_hal_dac.c **** 
 1153              		.loc 1 929 3 view .LVU306
 932:../Drivers/STM32F7xx_HAL_Driver/Src/stm32f7xx_hal_dac.c ****   assert_param(IS_DAC_OUTPUT_BUFFER_STATE(sConfig->DAC_OutputBuffer));
 1154              		.loc 1 932 3 view .LVU307
 933:../Drivers/STM32F7xx_HAL_Driver/Src/stm32f7xx_hal_dac.c ****   assert_param(IS_DAC_CHANNEL(Channel));
 1155              		.loc 1 933 3 view .LVU308
 934:../Drivers/STM32F7xx_HAL_Driver/Src/stm32f7xx_hal_dac.c **** 
 1156              		.loc 1 934 3 view .LVU309
 937:../Drivers/STM32F7xx_HAL_Driver/Src/stm32f7xx_hal_dac.c **** 
 1157              		.loc 1 937 3 view .LVU310
 937:../Drivers/STM32F7xx_HAL_Driver/Src/stm32f7xx_hal_dac.c **** 
 1158              		.loc 1 937 3 view .LVU311
 1159 0000 4379     		ldrb	r3, [r0, #5]	@ zero_extendqisi2
 1160 0002 012B     		cmp	r3, #1
 1161 0004 25D0     		beq	.L79
 927:../Drivers/STM32F7xx_HAL_Driver/Src/stm32f7xx_hal_dac.c ****   uint32_t tmpreg1;
 1162              		.loc 1 927 1 is_stmt 0 discriminator 2 view .LVU312
 1163 0006 10B5     		push	{r4, lr}
 1164              	.LCFI21:
 1165              		.cfi_def_cfa_offset 8
 1166              		.cfi_offset 4, -8
 1167              		.cfi_offset 14, -4
 937:../Drivers/STM32F7xx_HAL_Driver/Src/stm32f7xx_hal_dac.c **** 
 1168              		.loc 1 937 3 is_stmt 1 discriminator 2 view .LVU313
 1169 0008 4FF0010E 		mov	lr, #1
 1170 000c 80F805E0 		strb	lr, [r0, #5]
 937:../Drivers/STM32F7xx_HAL_Driver/Src/stm32f7xx_hal_dac.c **** 
 1171              		.loc 1 937 3 discriminator 2 view .LVU314
 940:../Drivers/STM32F7xx_HAL_Driver/Src/stm32f7xx_hal_dac.c **** 
 1172              		.loc 1 940 3 discriminator 2 view .LVU315
 940:../Drivers/STM32F7xx_HAL_Driver/Src/stm32f7xx_hal_dac.c **** 
ARM GAS  /tmp/ccQRGNkD.s 			page 47


 1173              		.loc 1 940 15 is_stmt 0 discriminator 2 view .LVU316
 1174 0010 0223     		movs	r3, #2
 1175 0012 0371     		strb	r3, [r0, #4]
 943:../Drivers/STM32F7xx_HAL_Driver/Src/stm32f7xx_hal_dac.c ****   /* Clear BOFFx, TENx, TSELx, WAVEx and MAMPx bits */
 1176              		.loc 1 943 3 is_stmt 1 discriminator 2 view .LVU317
 943:../Drivers/STM32F7xx_HAL_Driver/Src/stm32f7xx_hal_dac.c ****   /* Clear BOFFx, TENx, TSELx, WAVEx and MAMPx bits */
 1177              		.loc 1 943 17 is_stmt 0 discriminator 2 view .LVU318
 1178 0014 0468     		ldr	r4, [r0]
 943:../Drivers/STM32F7xx_HAL_Driver/Src/stm32f7xx_hal_dac.c ****   /* Clear BOFFx, TENx, TSELx, WAVEx and MAMPx bits */
 1179              		.loc 1 943 11 discriminator 2 view .LVU319
 1180 0016 2368     		ldr	r3, [r4]
 1181              	.LVL82:
 945:../Drivers/STM32F7xx_HAL_Driver/Src/stm32f7xx_hal_dac.c ****   /* Configure for the selected DAC channel: buffer output, trigger */
 1182              		.loc 1 945 3 is_stmt 1 discriminator 2 view .LVU320
 945:../Drivers/STM32F7xx_HAL_Driver/Src/stm32f7xx_hal_dac.c ****   /* Configure for the selected DAC channel: buffer output, trigger */
 1183              		.loc 1 945 114 is_stmt 0 discriminator 2 view .LVU321
 1184 0018 02F01002 		and	r2, r2, #16
 1185              	.LVL83:
 945:../Drivers/STM32F7xx_HAL_Driver/Src/stm32f7xx_hal_dac.c ****   /* Configure for the selected DAC channel: buffer output, trigger */
 1186              		.loc 1 945 102 discriminator 2 view .LVU322
 1187 001c 40F6FE7C 		movw	ip, #4094
 1188 0020 0CFA02FC 		lsl	ip, ip, r2
 945:../Drivers/STM32F7xx_HAL_Driver/Src/stm32f7xx_hal_dac.c ****   /* Configure for the selected DAC channel: buffer output, trigger */
 1189              		.loc 1 945 11 discriminator 2 view .LVU323
 1190 0024 23EA0C0C 		bic	ip, r3, ip
 1191              	.LVL84:
 949:../Drivers/STM32F7xx_HAL_Driver/Src/stm32f7xx_hal_dac.c ****   /* Calculate CR register value depending on DAC_Channel */
 1192              		.loc 1 949 3 is_stmt 1 discriminator 2 view .LVU324
 949:../Drivers/STM32F7xx_HAL_Driver/Src/stm32f7xx_hal_dac.c ****   /* Calculate CR register value depending on DAC_Channel */
 1193              		.loc 1 949 21 is_stmt 0 discriminator 2 view .LVU325
 1194 0028 0B68     		ldr	r3, [r1]
 949:../Drivers/STM32F7xx_HAL_Driver/Src/stm32f7xx_hal_dac.c ****   /* Calculate CR register value depending on DAC_Channel */
 1195              		.loc 1 949 44 discriminator 2 view .LVU326
 1196 002a 4968     		ldr	r1, [r1, #4]
 1197              	.LVL85:
 949:../Drivers/STM32F7xx_HAL_Driver/Src/stm32f7xx_hal_dac.c ****   /* Calculate CR register value depending on DAC_Channel */
 1198              		.loc 1 949 11 discriminator 2 view .LVU327
 1199 002c 0B43     		orrs	r3, r3, r1
 1200              	.LVL86:
 951:../Drivers/STM32F7xx_HAL_Driver/Src/stm32f7xx_hal_dac.c ****   /* Write to DAC CR */
 1201              		.loc 1 951 3 is_stmt 1 discriminator 2 view .LVU328
 951:../Drivers/STM32F7xx_HAL_Driver/Src/stm32f7xx_hal_dac.c ****   /* Write to DAC CR */
 1202              		.loc 1 951 22 is_stmt 0 discriminator 2 view .LVU329
 1203 002e 9340     		lsls	r3, r3, r2
 1204              	.LVL87:
 951:../Drivers/STM32F7xx_HAL_Driver/Src/stm32f7xx_hal_dac.c ****   /* Write to DAC CR */
 1205              		.loc 1 951 11 discriminator 2 view .LVU330
 1206 0030 43EA0C03 		orr	r3, r3, ip
 1207              	.LVL88:
 953:../Drivers/STM32F7xx_HAL_Driver/Src/stm32f7xx_hal_dac.c ****   /* Disable wave generation */
 1208              		.loc 1 953 3 is_stmt 1 discriminator 2 view .LVU331
 953:../Drivers/STM32F7xx_HAL_Driver/Src/stm32f7xx_hal_dac.c ****   /* Disable wave generation */
 1209              		.loc 1 953 22 is_stmt 0 discriminator 2 view .LVU332
 1210 0034 2360     		str	r3, [r4]
 1211              	.LVL89:
 955:../Drivers/STM32F7xx_HAL_Driver/Src/stm32f7xx_hal_dac.c **** 
 1212              		.loc 1 955 3 is_stmt 1 discriminator 2 view .LVU333
ARM GAS  /tmp/ccQRGNkD.s 			page 48


 1213 0036 0468     		ldr	r4, [r0]
 1214 0038 2368     		ldr	r3, [r4]
 1215              	.LVL90:
 955:../Drivers/STM32F7xx_HAL_Driver/Src/stm32f7xx_hal_dac.c **** 
 1216              		.loc 1 955 3 is_stmt 0 discriminator 2 view .LVU334
 1217 003a C021     		movs	r1, #192
 1218 003c 01FA02F2 		lsl	r2, r1, r2
 1219 0040 23EA0202 		bic	r2, r3, r2
 1220 0044 2260     		str	r2, [r4]
 958:../Drivers/STM32F7xx_HAL_Driver/Src/stm32f7xx_hal_dac.c **** 
 1221              		.loc 1 958 3 is_stmt 1 discriminator 2 view .LVU335
 958:../Drivers/STM32F7xx_HAL_Driver/Src/stm32f7xx_hal_dac.c **** 
 1222              		.loc 1 958 15 is_stmt 0 discriminator 2 view .LVU336
 1223 0046 80F804E0 		strb	lr, [r0, #4]
 961:../Drivers/STM32F7xx_HAL_Driver/Src/stm32f7xx_hal_dac.c **** 
 1224              		.loc 1 961 3 is_stmt 1 discriminator 2 view .LVU337
 961:../Drivers/STM32F7xx_HAL_Driver/Src/stm32f7xx_hal_dac.c **** 
 1225              		.loc 1 961 3 discriminator 2 view .LVU338
 1226 004a 0023     		movs	r3, #0
 1227 004c 4371     		strb	r3, [r0, #5]
 961:../Drivers/STM32F7xx_HAL_Driver/Src/stm32f7xx_hal_dac.c **** 
 1228              		.loc 1 961 3 discriminator 2 view .LVU339
 964:../Drivers/STM32F7xx_HAL_Driver/Src/stm32f7xx_hal_dac.c **** }
 1229              		.loc 1 964 3 discriminator 2 view .LVU340
 964:../Drivers/STM32F7xx_HAL_Driver/Src/stm32f7xx_hal_dac.c **** }
 1230              		.loc 1 964 10 is_stmt 0 discriminator 2 view .LVU341
 1231 004e 1846     		mov	r0, r3
 1232              	.LVL91:
 965:../Drivers/STM32F7xx_HAL_Driver/Src/stm32f7xx_hal_dac.c **** 
 1233              		.loc 1 965 1 discriminator 2 view .LVU342
 1234 0050 10BD     		pop	{r4, pc}
 1235              	.LVL92:
 1236              	.L79:
 1237              	.LCFI22:
 1238              		.cfi_def_cfa_offset 0
 1239              		.cfi_restore 4
 1240              		.cfi_restore 14
 937:../Drivers/STM32F7xx_HAL_Driver/Src/stm32f7xx_hal_dac.c **** 
 1241              		.loc 1 937 3 view .LVU343
 1242 0052 0220     		movs	r0, #2
 1243              	.LVL93:
 965:../Drivers/STM32F7xx_HAL_Driver/Src/stm32f7xx_hal_dac.c **** 
 1244              		.loc 1 965 1 view .LVU344
 1245 0054 7047     		bx	lr
 1246              		.cfi_endproc
 1247              	.LFE156:
 1249              		.section	.text.HAL_DAC_GetState,"ax",%progbits
 1250              		.align	1
 1251              		.global	HAL_DAC_GetState
 1252              		.syntax unified
 1253              		.thumb
 1254              		.thumb_func
 1255              		.fpu fpv5-d16
 1257              	HAL_DAC_GetState:
 1258              	.LVL94:
 1259              	.LFB157:
 994:../Drivers/STM32F7xx_HAL_Driver/Src/stm32f7xx_hal_dac.c ****   /* Return DAC handle state */
ARM GAS  /tmp/ccQRGNkD.s 			page 49


 1260              		.loc 1 994 1 is_stmt 1 view -0
 1261              		.cfi_startproc
 1262              		@ args = 0, pretend = 0, frame = 0
 1263              		@ frame_needed = 0, uses_anonymous_args = 0
 1264              		@ link register save eliminated.
 996:../Drivers/STM32F7xx_HAL_Driver/Src/stm32f7xx_hal_dac.c **** }
 1265              		.loc 1 996 3 view .LVU346
 996:../Drivers/STM32F7xx_HAL_Driver/Src/stm32f7xx_hal_dac.c **** }
 1266              		.loc 1 996 14 is_stmt 0 view .LVU347
 1267 0000 0079     		ldrb	r0, [r0, #4]	@ zero_extendqisi2
 1268              	.LVL95:
 997:../Drivers/STM32F7xx_HAL_Driver/Src/stm32f7xx_hal_dac.c **** 
 1269              		.loc 1 997 1 view .LVU348
 1270 0002 7047     		bx	lr
 1271              		.cfi_endproc
 1272              	.LFE157:
 1274              		.section	.text.HAL_DAC_GetError,"ax",%progbits
 1275              		.align	1
 1276              		.global	HAL_DAC_GetError
 1277              		.syntax unified
 1278              		.thumb
 1279              		.thumb_func
 1280              		.fpu fpv5-d16
 1282              	HAL_DAC_GetError:
 1283              	.LVL96:
 1284              	.LFB158:
1007:../Drivers/STM32F7xx_HAL_Driver/Src/stm32f7xx_hal_dac.c ****   return hdac->ErrorCode;
 1285              		.loc 1 1007 1 is_stmt 1 view -0
 1286              		.cfi_startproc
 1287              		@ args = 0, pretend = 0, frame = 0
 1288              		@ frame_needed = 0, uses_anonymous_args = 0
 1289              		@ link register save eliminated.
1008:../Drivers/STM32F7xx_HAL_Driver/Src/stm32f7xx_hal_dac.c **** }
 1290              		.loc 1 1008 3 view .LVU350
1008:../Drivers/STM32F7xx_HAL_Driver/Src/stm32f7xx_hal_dac.c **** }
 1291              		.loc 1 1008 14 is_stmt 0 view .LVU351
 1292 0000 0069     		ldr	r0, [r0, #16]
 1293              	.LVL97:
1009:../Drivers/STM32F7xx_HAL_Driver/Src/stm32f7xx_hal_dac.c **** 
 1294              		.loc 1 1009 1 view .LVU352
 1295 0002 7047     		bx	lr
 1296              		.cfi_endproc
 1297              	.LFE158:
 1299              		.text
 1300              	.Letext0:
 1301              		.file 2 "../Drivers/CMSIS/Device/ST/STM32F7xx/Include/stm32f767xx.h"
 1302              		.file 3 "/usr/lib/gcc/arm-none-eabi/10.3.1/include/stdint.h"
 1303              		.file 4 "../Drivers/STM32F7xx_HAL_Driver/Inc/stm32f7xx_hal_def.h"
 1304              		.file 5 "../Drivers/STM32F7xx_HAL_Driver/Inc/stm32f7xx_hal_dma.h"
 1305              		.file 6 "../Drivers/STM32F7xx_HAL_Driver/Inc/stm32f7xx_hal_dac.h"
 1306              		.file 7 "../Drivers/STM32F7xx_HAL_Driver/Inc/stm32f7xx_hal_dac_ex.h"
ARM GAS  /tmp/ccQRGNkD.s 			page 50

